(dp0
cnumpy.core.multiarray
scalar
p1
(cnumpy
dtype
p2
(S'i4'
p3
I0
I1
tp4
Rp5
(I3
S'<'
p6
NNNI-1
I-1
I0
tp7
bS'\x01\x00\x00\x00'
p8
tp9
Rp10
(lp11
I423
asg1
(g5
S'\x02\x00\x00\x00'
p12
tp13
Rp14
(lp15
I1290
asg1
(g5
S'\x03\x00\x00\x00'
p16
tp17
Rp18
(lp19
I242
asg1
(g5
S'\x04\x00\x00\x00'
p20
tp21
Rp22
(lp23
I263
asg1
(g5
S'\x05\x00\x00\x00'
p24
tp25
Rp26
(lp27
I845
asg1
(g5
S'\x06\x00\x00\x00'
p28
tp29
Rp30
(lp31
I8
aI11
aI12
aI14
aI22
aI25
aI26
aI30
aI49
aI54
aI59
aI66
aI68
aI69
aI81
aI85
aI93
aI117
aI121
aI124
aI125
aI126
aI127
aI130
aI136
aI149
aI150
aI151
aI152
aI156
aI168
aI173
aI174
aI175
aI177
aI182
aI189
aI190
aI191
aI204
aI207
aI212
aI213
aI218
aI223
aI224
aI239
aI240
aI254
aI255
aI257
aI265
aI268
aI276
aI283
aI289
aI301
aI309
aI318
aI320
aI321
aI323
aI324
aI331
aI345
aI348
aI353
aI354
aI355
aI359
aI366
aI369
aI371
aI372
aI380
aI387
aI388
aI396
aI413
aI414
aI418
aI421
aI422
aI427
aI437
aI443
aI445
aI450
aI451
aI456
aI464
aI467
aI468
aI473
aI478
aI480
aI481
aI482
aI484
aI485
aI486
aI490
aI495
aI497
aI506
aI508
aI510
aI516
aI519
aI520
aI524
aI529
aI530
aI539
aI544
aI547
aI552
aI556
aI566
aI570
aI572
aI573
aI574
aI575
aI579
aI582
aI583
aI594
aI595
aI596
aI598
aI601
aI603
aI609
aI610
aI624
aI630
aI646
aI653
aI654
aI655
aI659
aI663
aI669
aI670
aI675
aI678
aI680
aI689
aI695
aI700
aI706
aI709
aI716
aI721
aI722
aI724
aI728
aI730
aI734
aI747
aI748
aI749
aI762
aI763
aI769
aI770
aI773
aI781
aI789
aI795
aI796
aI799
aI806
aI809
aI811
aI812
aI814
aI817
aI827
aI830
aI832
aI838
aI842
aI846
aI851
aI856
aI861
aI868
aI869
aI871
aI875
aI876
aI882
aI885
aI886
aI888
aI891
aI892
aI893
aI896
aI897
aI906
aI913
aI917
aI920
aI925
aI930
aI934
aI943
aI950
aI960
aI961
aI963
aI989
aI1005
aI1007
aI1011
aI1018
aI1019
aI1024
aI1025
aI1027
aI1031
aI1035
aI1037
aI1038
aI1045
aI1052
aI1061
aI1062
aI1066
aI1067
aI1076
aI1088
aI1093
aI1100
aI1101
aI1107
aI1110
aI1114
aI1115
aI1121
aI1125
aI1126
aI1129
aI1133
aI1140
aI1143
aI1146
aI1148
aI1159
aI1165
aI1172
aI1179
aI1183
aI1188
aI1194
aI1196
aI1198
aI1202
aI1206
aI1211
aI1215
aI1222
aI1238
aI1245
aI1246
aI1255
aI1256
aI1257
aI1258
aI1271
aI1272
aI1281
aI1292
aI1300
aI1305
aI1309
aI1312
aI1314
aI1318
aI1323
aI1324
aI1331
aI1332
aI1342
aI1345
aI1346
aI1347
aI1350
aI1355
aI1357
aI1374
aI1375
aI1376
aI1385
aI1390
aI1391
aI1394
aI1408
aI1415
aI1418
aI1420
aI1423
aI1430
aI1431
aI1433
aI1434
aI1442
aI1444
aI1454
aI1457
aI1466
aI1467
aI1469
aI1470
aI1476
aI1482
aI1486
aI1488
aI1495
aI1502
aI1505
aI1517
aI1528
aI1532
aI1533
aI1534
asg1
(g5
S'\x07\x00\x00\x00'
p32
tp33
Rp34
(lp35
I0
aI1
aI2
aI3
aI4
aI5
aI6
aI7
aI9
aI15
aI16
aI18
aI19
aI20
aI21
aI23
aI24
aI27
aI28
aI29
aI31
aI32
aI33
aI34
aI35
aI37
aI38
aI39
aI40
aI42
aI43
aI44
aI45
aI46
aI47
aI48
aI50
aI51
aI52
aI53
aI55
aI56
aI57
aI58
aI60
aI61
aI62
aI63
aI64
aI65
aI67
aI70
aI71
aI72
aI73
aI74
aI75
aI76
aI77
aI78
aI79
aI80
aI82
aI83
aI84
aI86
aI87
aI88
aI89
aI90
aI92
aI94
aI95
aI97
aI98
aI99
aI100
aI101
aI102
aI103
aI104
aI105
aI106
aI107
aI108
aI109
aI110
aI111
aI113
aI114
aI115
aI116
aI118
aI119
aI120
aI122
aI123
aI128
aI129
aI131
aI132
aI133
aI134
aI135
aI137
aI138
aI139
aI140
aI141
aI142
aI143
aI144
aI145
aI146
aI147
aI148
aI153
aI154
aI155
aI157
aI158
aI159
aI160
aI161
aI162
aI163
aI164
aI165
aI166
aI167
aI169
aI170
aI171
aI172
aI176
aI178
aI179
aI180
aI181
aI183
aI184
aI185
aI186
aI187
aI188
aI192
aI193
aI194
aI195
aI196
aI197
aI198
aI199
aI200
aI201
aI202
aI203
aI205
aI206
aI208
aI209
aI210
aI211
aI214
aI215
aI216
aI217
aI219
aI220
aI221
aI222
aI225
aI226
aI227
aI228
aI229
aI230
aI231
aI232
aI233
aI234
aI235
aI236
aI237
aI238
aI241
aI243
aI244
aI245
aI246
aI248
aI249
aI250
aI251
aI252
aI253
aI256
aI258
aI260
aI261
aI262
aI264
aI266
aI269
aI270
aI271
aI272
aI273
aI274
aI275
aI277
aI278
aI279
aI280
aI281
aI282
aI284
aI285
aI286
aI287
aI288
aI290
aI291
aI292
aI293
aI294
aI295
aI296
aI297
aI298
aI299
aI300
aI302
aI304
aI305
aI306
aI307
aI310
aI311
aI312
aI314
aI315
aI316
aI317
aI319
aI322
aI325
aI326
aI327
aI328
aI330
aI332
aI333
aI334
aI335
aI336
aI337
aI339
aI340
aI341
aI342
aI343
aI344
aI346
aI347
aI349
aI350
aI352
aI356
aI357
aI358
aI360
aI361
aI362
aI363
aI364
aI365
aI367
aI368
aI370
aI373
aI374
aI375
aI376
aI377
aI378
aI379
aI381
aI382
aI383
aI384
aI385
aI386
aI389
aI390
aI391
aI392
aI393
aI394
aI398
aI399
aI400
aI401
aI402
aI403
aI404
aI405
aI406
aI407
aI408
aI409
aI410
aI411
aI412
aI415
aI416
aI417
aI419
aI420
aI425
aI426
aI428
aI429
aI430
aI431
aI432
aI433
aI434
aI435
aI436
aI438
aI439
aI441
aI442
aI444
aI446
aI447
aI448
aI449
aI452
aI453
aI454
aI455
aI457
aI458
aI459
aI460
aI461
aI462
aI463
aI465
aI466
aI469
aI470
aI471
aI472
aI474
aI475
aI476
aI477
aI479
aI483
aI489
aI491
aI492
aI493
aI494
aI496
aI498
aI499
aI500
aI501
aI503
aI504
aI505
aI507
aI509
aI511
aI512
aI513
aI514
aI515
aI517
aI518
aI521
aI522
aI523
aI525
aI526
aI527
aI528
aI531
aI532
aI533
aI534
aI535
aI536
aI537
aI538
aI540
aI541
aI542
aI543
aI545
aI546
aI548
aI549
aI550
aI551
aI553
aI555
aI557
aI558
aI559
aI560
aI561
aI562
aI563
aI564
aI565
aI567
aI568
aI569
aI571
aI576
aI577
aI578
aI580
aI581
aI584
aI585
aI586
aI588
aI589
aI590
aI591
aI592
aI593
aI597
aI599
aI602
aI604
aI605
aI606
aI607
aI608
aI611
aI613
aI614
aI616
aI617
aI618
aI619
aI620
aI622
aI623
aI625
aI627
aI628
aI629
aI631
aI632
aI633
aI634
aI635
aI636
aI638
aI640
aI641
aI642
aI643
aI644
aI647
aI648
aI649
aI651
aI652
aI656
aI657
aI658
aI661
aI662
aI664
aI665
aI666
aI667
aI668
aI671
aI672
aI673
aI674
aI676
aI677
aI681
aI682
aI683
aI684
aI685
aI686
aI687
aI688
aI690
aI691
aI692
aI693
aI694
aI696
aI697
aI698
aI699
aI701
aI702
aI703
aI704
aI705
aI707
aI708
aI710
aI711
aI712
aI713
aI714
aI715
aI717
aI718
aI719
aI720
aI723
aI726
aI727
aI729
aI731
aI732
aI733
aI735
aI736
aI737
aI738
aI739
aI740
aI741
aI742
aI743
aI744
aI745
aI746
aI750
aI751
aI752
aI753
aI754
aI755
aI756
aI757
aI759
aI760
aI764
aI765
aI766
aI767
aI768
aI771
aI772
aI774
aI775
aI776
aI777
aI778
aI779
aI780
aI782
aI783
aI784
aI785
aI786
aI787
aI788
aI791
aI792
aI793
aI794
aI797
aI798
aI800
aI801
aI802
aI803
aI804
aI805
aI807
aI808
aI810
aI813
aI815
aI816
aI818
aI819
aI820
aI821
aI822
aI823
aI824
aI825
aI826
aI828
aI829
aI831
aI833
aI834
aI835
aI836
aI837
aI839
aI840
aI841
aI843
aI844
aI847
aI848
aI849
aI850
aI852
aI853
aI854
aI855
aI857
aI858
aI859
aI860
aI862
aI863
aI864
aI865
aI866
aI867
aI872
aI873
aI874
aI877
aI878
aI879
aI880
aI881
aI883
aI884
aI887
aI889
aI890
aI894
aI895
aI898
aI899
aI900
aI901
aI902
aI903
aI904
aI905
aI907
aI908
aI909
aI910
aI911
aI912
aI914
aI915
aI916
aI918
aI919
aI921
aI922
aI923
aI924
aI926
aI927
aI928
aI929
aI931
aI932
aI933
aI935
aI936
aI937
aI938
aI939
aI940
aI941
aI942
aI944
aI945
aI946
aI947
aI948
aI949
aI951
aI952
aI953
aI954
aI955
aI956
aI957
aI958
aI959
aI962
aI964
aI965
aI966
aI967
aI968
aI969
aI970
aI971
aI972
aI973
aI974
aI975
aI976
aI977
aI978
aI979
aI980
aI981
aI982
aI983
aI984
aI985
aI986
aI987
aI988
aI990
aI991
aI992
aI994
aI995
aI996
aI997
aI998
aI999
aI1000
aI1001
aI1002
aI1003
aI1004
aI1006
aI1008
aI1009
aI1010
aI1012
aI1013
aI1014
aI1015
aI1016
aI1020
aI1021
aI1022
aI1023
aI1026
aI1028
aI1030
aI1032
aI1033
aI1034
aI1036
aI1039
aI1040
aI1042
aI1043
aI1044
aI1046
aI1047
aI1048
aI1049
aI1050
aI1051
aI1053
aI1054
aI1055
aI1056
aI1057
aI1058
aI1059
aI1060
aI1063
aI1064
aI1065
aI1068
aI1069
aI1070
aI1071
aI1072
aI1074
aI1075
aI1078
aI1080
aI1081
aI1082
aI1083
aI1084
aI1085
aI1086
aI1087
aI1089
aI1090
aI1091
aI1092
aI1094
aI1095
aI1096
aI1097
aI1098
aI1102
aI1103
aI1104
aI1105
aI1106
aI1109
aI1111
aI1112
aI1113
aI1117
aI1118
aI1119
aI1120
aI1122
aI1123
aI1124
aI1127
aI1128
aI1130
aI1131
aI1132
aI1134
aI1135
aI1136
aI1137
aI1138
aI1139
aI1141
aI1142
aI1144
aI1145
aI1147
aI1149
aI1150
aI1151
aI1152
aI1153
aI1154
aI1155
aI1156
aI1157
aI1158
aI1160
aI1161
aI1162
aI1163
aI1164
aI1166
aI1167
aI1168
aI1169
aI1170
aI1171
aI1173
aI1174
aI1175
aI1176
aI1177
aI1178
aI1180
aI1181
aI1182
aI1184
aI1185
aI1186
aI1187
aI1189
aI1190
aI1191
aI1193
aI1195
aI1199
aI1200
aI1201
aI1203
aI1204
aI1205
aI1207
aI1208
aI1209
aI1210
aI1212
aI1213
aI1214
aI1216
aI1217
aI1218
aI1219
aI1220
aI1221
aI1223
aI1224
aI1225
aI1226
aI1227
aI1228
aI1229
aI1230
aI1231
aI1232
aI1233
aI1234
aI1235
aI1236
aI1237
aI1239
aI1240
aI1241
aI1242
aI1243
aI1244
aI1247
aI1248
aI1249
aI1250
aI1251
aI1252
aI1253
aI1254
aI1259
aI1260
aI1261
aI1262
aI1264
aI1265
aI1266
aI1267
aI1268
aI1269
aI1270
aI1273
aI1274
aI1275
aI1276
aI1277
aI1279
aI1280
aI1282
aI1283
aI1284
aI1285
aI1287
aI1288
aI1289
aI1291
aI1293
aI1294
aI1295
aI1296
aI1297
aI1298
aI1301
aI1302
aI1304
aI1306
aI1307
aI1308
aI1310
aI1311
aI1313
aI1315
aI1316
aI1317
aI1319
aI1320
aI1321
aI1322
aI1325
aI1326
aI1327
aI1328
aI1329
aI1330
aI1333
aI1334
aI1335
aI1337
aI1338
aI1339
aI1340
aI1341
aI1343
aI1344
aI1348
aI1349
aI1351
aI1354
aI1356
aI1358
aI1359
aI1360
aI1361
aI1362
aI1363
aI1364
aI1365
aI1366
aI1367
aI1368
aI1369
aI1370
aI1371
aI1372
aI1373
aI1377
aI1378
aI1379
aI1380
aI1381
aI1383
aI1384
aI1386
aI1387
aI1388
aI1389
aI1392
aI1393
aI1395
aI1396
aI1397
aI1398
aI1399
aI1400
aI1401
aI1402
aI1403
aI1404
aI1405
aI1406
aI1410
aI1411
aI1412
aI1413
aI1414
aI1416
aI1417
aI1419
aI1421
aI1422
aI1424
aI1425
aI1426
aI1427
aI1428
aI1429
aI1432
aI1435
aI1436
aI1437
aI1438
aI1439
aI1440
aI1441
aI1443
aI1445
aI1446
aI1448
aI1449
aI1450
aI1451
aI1452
aI1453
aI1455
aI1456
aI1458
aI1459
aI1460
aI1461
aI1462
aI1463
aI1465
aI1468
aI1471
aI1473
aI1474
aI1475
aI1477
aI1478
aI1479
aI1480
aI1481
aI1483
aI1484
aI1485
aI1487
aI1489
aI1490
aI1491
aI1493
aI1494
aI1496
aI1497
aI1498
aI1499
aI1500
aI1503
aI1504
aI1506
aI1507
aI1508
aI1509
aI1510
aI1511
aI1512
aI1514
aI1515
aI1516
aI1518
aI1520
aI1521
aI1522
aI1523
aI1524
aI1526
aI1527
aI1529
aI1530
aI1531
aI1535
aI1536
aI1537
aI1538
asg1
(g5
S'\x08\x00\x00\x00'
p36
tp37
Rp38
(lp39
I1077
aI1472
asg1
(g5
S'\t\x00\x00\x00'
p40
tp41
Rp42
(lp43
I1299
aI1464
asg1
(g5
S'\n\x00\x00\x00'
p44
tp45
Rp46
(lp47
I587
aI1519
asg1
(g5
S'\x0b\x00\x00\x00'
p48
tp49
Rp50
(lp51
I790
asg1
(g5
S'\x0c\x00\x00\x00'
p52
tp53
Rp54
(lp55
I17
aI91
aI96
aI112
aI259
aI338
aI351
aI397
aI440
aI637
aI639
aI650
aI660
aI758
aI761
aI1017
aI1099
aI1108
aI1192
aI1303
aI1352
aI1382
aI1407
aI1525
asg1
(g5
S'\r\x00\x00\x00'
p56
tp57
Rp58
(lp59
I10
aI41
aI502
aI612
asg1
(g5
S'\x0e\x00\x00\x00'
p60
tp61
Rp62
(lp63
I36
aI247
aI267
aI303
aI308
aI313
aI329
aI395
aI424
aI487
aI488
aI554
aI600
aI621
aI626
aI645
aI679
aI725
aI870
aI1029
aI1041
aI1073
aI1116
aI1263
aI1278
aI1286
aI1336
aI1353
aI1409
aI1447
aI1492
aI1513
aI1539
asg1
(g5
S'\x0f\x00\x00\x00'
p64
tp65
Rp66
(lp67
I13
asg1
(g5
S'\x10\x00\x00\x00'
p68
tp69
Rp70
(lp71
I615
asg1
(g5
S'\x11\x00\x00\x00'
p72
tp73
Rp74
(lp75
I1501
asg1
(g5
S'\x12\x00\x00\x00'
p76
tp77
Rp78
(lp79
I993
asg1
(g5
S'\x13\x00\x00\x00'
p80
tp81
Rp82
(lp83
I1197
asg1
(g5
S'\x14\x00\x00\x00'
p84
tp85
Rp86
(lp87
I1079
as.