(dp0
I0
(lp1
S'/raid/linjieli/faceSimilarity/attractive/mit/males/i1.jpg'
p2
aS'/raid/linjieli/faceSimilarity/attractive/mit/males/i4.jpg'
p3
aS'/raid/linjieli/faceSimilarity/attractive/mit/males/i7.jpg'
p4
aS'/raid/linjieli/faceSimilarity/attractive/mit/males/i10.jpg'
p5
aS'/raid/linjieli/faceSimilarity/attractive/mit/males/i12.jpg'
p6
aS'/raid/linjieli/faceSimilarity/attractive/mit/males/i13.jpg'
p7
aS'/raid/linjieli/faceSimilarity/attractive/mit/males/i18.jpg'
p8
aS'/raid/linjieli/faceSimilarity/attractive/mit/males/i19.jpg'
p9
aS'/raid/linjieli/faceSimilarity/attractive/mit/males/i22.jpg'
p10
aS'/raid/linjieli/faceSimilarity/attractive/mit/males/i28.jpg'
p11
aS'/raid/linjieli/faceSimilarity/attractive/mit/males/i32.jpg'
p12
aS'/raid/linjieli/faceSimilarity/attractive/mit/males/i37.jpg'
p13
aS'/raid/linjieli/faceSimilarity/attractive/mit/males/i39.jpg'
p14
aS'/raid/linjieli/faceSimilarity/attractive/mit/males/i41.jpg'
p15
aS'/raid/linjieli/faceSimilarity/attractive/mit/males/i44.jpg'
p16
aS'/raid/linjieli/faceSimilarity/attractive/mit/males/i49.jpg'
p17
aS'/raid/linjieli/faceSimilarity/attractive/mit/males/i53.jpg'
p18
aS'/raid/linjieli/faceSimilarity/attractive/mit/males/i60.jpg'
p19
aS'/raid/linjieli/faceSimilarity/attractive/mit/males/i62.jpg'
p20
aS'/raid/linjieli/faceSimilarity/attractive/mit/males/i66.jpg'
p21
aS'/raid/linjieli/faceSimilarity/attractive/mit/males/i67.jpg'
p22
aS'/raid/linjieli/faceSimilarity/attractive/mit/males/i68.jpg'
p23
aS'/raid/linjieli/faceSimilarity/attractive/mit/males/i69.jpg'
p24
aS'/raid/linjieli/faceSimilarity/attractive/mit/males/i70.jpg'
p25
aS'/raid/linjieli/faceSimilarity/attractive/mit/males/i72.jpg'
p26
aS'/raid/linjieli/faceSimilarity/attractive/mit/males/i74.jpg'
p27
asI1
(lp28
S'/raid/linjieli/faceSimilarity/attractive/mit/females/i3.jpg'
p29
aS'/raid/linjieli/faceSimilarity/attractive/mit/females/i5.jpg'
p30
aS'/raid/linjieli/faceSimilarity/attractive/mit/females/i6.jpg'
p31
aS'/raid/linjieli/faceSimilarity/attractive/mit/females/i14.jpg'
p32
aS'/raid/linjieli/faceSimilarity/attractive/mit/females/i16.jpg'
p33
aS'/raid/linjieli/faceSimilarity/attractive/mit/females/i24.jpg'
p34
aS'/raid/linjieli/faceSimilarity/attractive/mit/females/i25.jpg'
p35
aS'/raid/linjieli/faceSimilarity/attractive/mit/females/i27.jpg'
p36
aS'/raid/linjieli/faceSimilarity/attractive/mit/females/i30.jpg'
p37
aS'/raid/linjieli/faceSimilarity/attractive/mit/females/i35.jpg'
p38
aS'/raid/linjieli/faceSimilarity/attractive/mit/females/i36.jpg'
p39
aS'/raid/linjieli/faceSimilarity/attractive/mit/females/i38.jpg'
p40
aS'/raid/linjieli/faceSimilarity/attractive/mit/females/i40.jpg'
p41
aS'/raid/linjieli/faceSimilarity/attractive/mit/females/i42.jpg'
p42
aS'/raid/linjieli/faceSimilarity/attractive/mit/females/i45.jpg'
p43
aS'/raid/linjieli/faceSimilarity/attractive/mit/females/i46.jpg'
p44
aS'/raid/linjieli/faceSimilarity/attractive/mit/females/i47.jpg'
p45
aS'/raid/linjieli/faceSimilarity/attractive/mit/females/i50.jpg'
p46
aS'/raid/linjieli/faceSimilarity/attractive/mit/females/i51.jpg'
p47
aS'/raid/linjieli/faceSimilarity/attractive/mit/females/i54.jpg'
p48
aS'/raid/linjieli/faceSimilarity/attractive/mit/females/i55.jpg'
p49
aS'/raid/linjieli/faceSimilarity/attractive/mit/females/i57.jpg'
p50
aS'/raid/linjieli/faceSimilarity/attractive/mit/females/i63.jpg'
p51
aS'/raid/linjieli/faceSimilarity/attractive/mit/females/i71.jpg'
p52
asI2
(lp53
S'/raid/linjieli/faceSimilarity/attractive/gs/males/C2_146.jpg'
p54
aS'/raid/linjieli/faceSimilarity/attractive/gs/males/C2_047.jpg'
p55
aS'/raid/linjieli/faceSimilarity/attractive/gs/males/C2_081.jpg'
p56
aS'/raid/linjieli/faceSimilarity/attractive/gs/males/C2_172.jpg'
p57
aS'/raid/linjieli/faceSimilarity/attractive/gs/males/C2_045.jpg'
p58
aS'/raid/linjieli/faceSimilarity/attractive/gs/males/C2_090.jpg'
p59
aS'/raid/linjieli/faceSimilarity/attractive/gs/males/C2_166.jpg'
p60
aS'/raid/linjieli/faceSimilarity/attractive/gs/males/C2_083.jpg'
p61
aS'/raid/linjieli/faceSimilarity/attractive/gs/males/C2_084.jpg'
p62
aS'/raid/linjieli/faceSimilarity/attractive/gs/males/C2_158.jpg'
p63
aS'/raid/linjieli/faceSimilarity/attractive/gs/males/C2_035.jpg'
p64
aS'/raid/linjieli/faceSimilarity/attractive/gs/males/C2_103.jpg'
p65
aS'/raid/linjieli/faceSimilarity/attractive/gs/males/C2_082.jpg'
p66
aS'/raid/linjieli/faceSimilarity/attractive/gs/males/C2_048.jpg'
p67
aS'/raid/linjieli/faceSimilarity/attractive/gs/males/C2_036.jpg'
p68
aS'/raid/linjieli/faceSimilarity/attractive/gs/males/C2_285.jpg'
p69
aS'/raid/linjieli/faceSimilarity/attractive/gs/males/C2_224.jpg'
p70
aS'/raid/linjieli/faceSimilarity/attractive/gs/males/C2_258.jpg'
p71
aS'/raid/linjieli/faceSimilarity/attractive/gs/males/C2_297.jpg'
p72
aS'/raid/linjieli/faceSimilarity/attractive/gs/males/C2_190.jpg'
p73
aS'/raid/linjieli/faceSimilarity/attractive/gs/males/C2_230.jpg'
p74
aS'/raid/linjieli/faceSimilarity/attractive/gs/males/C2_237.jpg'
p75
aS'/raid/linjieli/faceSimilarity/attractive/gs/males/C2_281.jpg'
p76
aS'/raid/linjieli/faceSimilarity/attractive/gs/males/C2_194.jpg'
p77
aS'/raid/linjieli/faceSimilarity/attractive/gs/males/C2_249.jpg'
p78
aS'/raid/linjieli/faceSimilarity/attractive/gs/males/C2_205.jpg'
p79
aS'/raid/linjieli/faceSimilarity/attractive/gs/males/C2_278.jpg'
p80
asI3
(lp81
S'/raid/linjieli/faceSimilarity/attractive/gs/females/C2_021.jpg'
p82
aS'/raid/linjieli/faceSimilarity/attractive/gs/females/C2_137.jpg'
p83
aS'/raid/linjieli/faceSimilarity/attractive/gs/females/C2_032.jpg'
p84
aS'/raid/linjieli/faceSimilarity/attractive/gs/females/C2_135.jpg'
p85
aS'/raid/linjieli/faceSimilarity/attractive/gs/females/C2_039.jpg'
p86
aS'/raid/linjieli/faceSimilarity/attractive/gs/females/C2_142.jpg'
p87
aS'/raid/linjieli/faceSimilarity/attractive/gs/females/C2_131.jpg'
p88
aS'/raid/linjieli/faceSimilarity/attractive/gs/females/C2_132.jpg'
p89
aS'/raid/linjieli/faceSimilarity/attractive/gs/females/C2_130.jpg'
p90
aS'/raid/linjieli/faceSimilarity/attractive/gs/females/C2_094.jpg'
p91
aS'/raid/linjieli/faceSimilarity/attractive/gs/females/C2_008.jpg'
p92
aS'/raid/linjieli/faceSimilarity/attractive/gs/females/C2_010.jpg'
p93
aS'/raid/linjieli/faceSimilarity/attractive/gs/females/C2_216.jpg'
p94
aS'/raid/linjieli/faceSimilarity/attractive/gs/females/C2_294.jpg'
p95
aS'/raid/linjieli/faceSimilarity/attractive/gs/females/C2_234.jpg'
p96
aS'/raid/linjieli/faceSimilarity/attractive/gs/females/C2_288.jpg'
p97
aS'/raid/linjieli/faceSimilarity/attractive/gs/females/C2_210.jpg'
p98
aS'/raid/linjieli/faceSimilarity/attractive/gs/females/C2_179.jpg'
p99
aS'/raid/linjieli/faceSimilarity/attractive/gs/females/C2_277.jpg'
p100
aS'/raid/linjieli/faceSimilarity/attractive/gs/females/C2_215.jpg'
p101
aS'/raid/linjieli/faceSimilarity/attractive/gs/females/C2_253.jpg'
p102
aS'/raid/linjieli/faceSimilarity/attractive/gs/females/C2_219.jpg'
p103
aS'/raid/linjieli/faceSimilarity/attractive/gs/females/C2_201.jpg'
p104
asI4
(lp105
S'/raid/linjieli/faceSimilarity/attractive/ngs/females/00090_931230_fa_ppm.jpg'
p106
aS'/raid/linjieli/faceSimilarity/attractive/ngs/females/00456_940422_fa_ppm.jpg'
p107
aS'/raid/linjieli/faceSimilarity/attractive/ngs/females/00424_940422_fa_ppm.jpg'
p108
aS'/raid/linjieli/faceSimilarity/attractive/ngs/females/00327_940422_fa_ppm.jpg'
p109
aS'/raid/linjieli/faceSimilarity/attractive/ngs/females/00314_940422_fa_ppm.jpg'
p110
aS'/raid/linjieli/faceSimilarity/attractive/ngs/females/10F_NE_C.jpg'
p111
aS'/raid/linjieli/faceSimilarity/attractive/ngs/females/00416_940422_fa_ppm.jpg'
p112
aS'/raid/linjieli/faceSimilarity/attractive/ngs/females/00391_940422_fa_ppm.jpg'
p113
aS'/raid/linjieli/faceSimilarity/attractive/ngs/females/00420_940422_fa_ppm.jpg'
p114
aS'/raid/linjieli/faceSimilarity/attractive/ngs/females/00379_940422_fa_ppm.jpg'
p115
aS'/raid/linjieli/faceSimilarity/attractive/ngs/females/00125_931230_fa_ppm.jpg'
p116
aS'/raid/linjieli/faceSimilarity/attractive/ngs/females/00398_940422_fa_ppm.jpg'
p117
aS'/raid/linjieli/faceSimilarity/attractive/ngs/females/00455_940422_fa_ppm.jpg'
p118
aS'/raid/linjieli/faceSimilarity/attractive/ngs/females/00419_940422_fa_ppm.jpg'
p119
aS'/raid/linjieli/faceSimilarity/attractive/ngs/females/05F_NE_C.jpg'
p120
aS'/raid/linjieli/faceSimilarity/attractive/ngs/females/BF03NES.jpg'
p121
aS'/raid/linjieli/faceSimilarity/attractive/ngs/females/BF30NES.jpg'
p122
aS'/raid/linjieli/faceSimilarity/attractive/ngs/females/AF19NES.jpg'
p123
aS'/raid/linjieli/faceSimilarity/attractive/ngs/females/AF01NES.jpg'
p124
aS'/raid/linjieli/faceSimilarity/attractive/ngs/females/AF35NES.jpg'
p125
aS'/raid/linjieli/faceSimilarity/attractive/ngs/females/BF04NES.jpg'
p126
aS'/raid/linjieli/faceSimilarity/attractive/ngs/females/AF29NES.jpg'
p127
aS'/raid/linjieli/faceSimilarity/attractive/ngs/females/image_0172.jpg'
p128
aS'/raid/linjieli/faceSimilarity/attractive/ngs/females/BF08NES.jpg'
p129
aS'/raid/linjieli/faceSimilarity/attractive/ngs/females/AF06NES.jpg'
p130
aS'/raid/linjieli/faceSimilarity/attractive/ngs/females/BF13NES.jpg'
p131
aS'/raid/linjieli/faceSimilarity/attractive/ngs/females/BF11NES.jpg'
p132
aS'/raid/linjieli/faceSimilarity/attractive/ngs/females/BF05NES.jpg'
p133
asI5
(lp134
S'/raid/linjieli/faceSimilarity/attractive/ngs/males/20M_NE_C.jpg'
p135
aS'/raid/linjieli/faceSimilarity/attractive/ngs/males/31M_NE_C.jpg'
p136
aS'/raid/linjieli/faceSimilarity/attractive/ngs/males/30M_NE_C.jpg'
p137
aS'/raid/linjieli/faceSimilarity/attractive/ngs/males/37M_NE_C.jpg'
p138
aS'/raid/linjieli/faceSimilarity/attractive/ngs/males/32M_NE_C.jpg'
p139
aS'/raid/linjieli/faceSimilarity/attractive/ngs/males/21M_NE_C.jpg'
p140
aS'/raid/linjieli/faceSimilarity/attractive/ngs/males/27M_NE_C.jpg'
p141
aS'/raid/linjieli/faceSimilarity/attractive/ngs/males/26M_NE_C.jpg'
p142
aS'/raid/linjieli/faceSimilarity/attractive/ngs/males/23M_NE_C.jpg'
p143
aS'/raid/linjieli/faceSimilarity/attractive/ngs/males/29M_NE_C.jpg'
p144
aS'/raid/linjieli/faceSimilarity/attractive/ngs/males/image_0046.jpg'
p145
aS'/raid/linjieli/faceSimilarity/attractive/ngs/males/image_0224.jpg'
p146
aS'/raid/linjieli/faceSimilarity/attractive/ngs/males/BM07NES.jpg'
p147
aS'/raid/linjieli/faceSimilarity/attractive/ngs/males/BM09NES.jpg'
p148
aS'/raid/linjieli/faceSimilarity/attractive/ngs/males/BM04NES.jpg'
p149
aS'/raid/linjieli/faceSimilarity/attractive/ngs/males/BM05NES.jpg'
p150
aS'/raid/linjieli/faceSimilarity/attractive/ngs/males/BM02NES.jpg'
p151
aS'/raid/linjieli/faceSimilarity/attractive/ngs/males/image_0252.jpg'
p152
aS'/raid/linjieli/faceSimilarity/attractive/ngs/males/AM33NES.jpg'
p153
aS'/raid/linjieli/faceSimilarity/attractive/ngs/males/AM01NES.jpg'
p154
aS'/raid/linjieli/faceSimilarity/attractive/ngs/males/AM30NES.jpg'
p155
aS'/raid/linjieli/faceSimilarity/attractive/ngs/males/BM21NES.jpg'
p156
asI6
(lp157
S'/raid/linjieli/faceSimilarity/attractive/gh/males/m1.jpg'
p158
aS'/raid/linjieli/faceSimilarity/attractive/gh/males/m21.jpg'
p159
aS'/raid/linjieli/faceSimilarity/attractive/gh/males/m33.jpg'
p160
aS'/raid/linjieli/faceSimilarity/attractive/gh/males/m3.jpg'
p161
aS'/raid/linjieli/faceSimilarity/attractive/gh/males/m22.jpg'
p162
aS'/raid/linjieli/faceSimilarity/attractive/gh/males/m26.jpg'
p163
aS'/raid/linjieli/faceSimilarity/attractive/gh/males/m23.jpg'
p164
aS'/raid/linjieli/faceSimilarity/attractive/gh/males/m28.jpg'
p165
aS'/raid/linjieli/faceSimilarity/attractive/gh/males/m34.jpg'
p166
aS'/raid/linjieli/faceSimilarity/attractive/gh/males/m30.jpg'
p167
aS'/raid/linjieli/faceSimilarity/attractive/gh/males/m35.jpg'
p168
aS'/raid/linjieli/faceSimilarity/attractive/gh/males/m16.jpg'
p169
aS'/raid/linjieli/faceSimilarity/attractive/gh/males/m11.jpg'
p170
aS'/raid/linjieli/faceSimilarity/attractive/gh/males/m25.jpg'
p171
aS'/raid/linjieli/faceSimilarity/attractive/gh/males/m6.jpg'
p172
aS'/raid/linjieli/faceSimilarity/attractive/gh/males/m4.jpg'
p173
aS'/raid/linjieli/faceSimilarity/attractive/gh/males/m15.jpg'
p174
aS'/raid/linjieli/faceSimilarity/attractive/gh/males/m7.jpg'
p175
aS'/raid/linjieli/faceSimilarity/attractive/gh/males/m31.jpg'
p176
aS'/raid/linjieli/faceSimilarity/attractive/gh/males/m48.jpg'
p177
aS'/raid/linjieli/faceSimilarity/attractive/gh/males/m39.jpg'
p178
aS'/raid/linjieli/faceSimilarity/attractive/gh/males/m59.jpg'
p179
aS'/raid/linjieli/faceSimilarity/attractive/gh/males/m69.jpg'
p180
asI7
(lp181
S'/raid/linjieli/faceSimilarity/attractive/gh/females/f8.jpg'
p182
aS'/raid/linjieli/faceSimilarity/attractive/gh/females/f22.jpg'
p183
aS'/raid/linjieli/faceSimilarity/attractive/gh/females/f4.jpg'
p184
aS'/raid/linjieli/faceSimilarity/attractive/gh/females/f5.jpg'
p185
aS'/raid/linjieli/faceSimilarity/attractive/gh/females/f20.jpg'
p186
aS'/raid/linjieli/faceSimilarity/attractive/gh/females/f34.jpg'
p187
aS'/raid/linjieli/faceSimilarity/attractive/gh/females/f6.jpg'
p188
aS'/raid/linjieli/faceSimilarity/attractive/gh/females/f33.jpg'
p189
aS'/raid/linjieli/faceSimilarity/attractive/gh/females/f18.jpg'
p190
aS'/raid/linjieli/faceSimilarity/attractive/gh/females/f23.jpg'
p191
aS'/raid/linjieli/faceSimilarity/attractive/gh/females/f31.jpg'
p192
aS'/raid/linjieli/faceSimilarity/attractive/gh/females/f29.jpg'
p193
aS'/raid/linjieli/faceSimilarity/attractive/gh/females/f11.jpg'
p194
aS'/raid/linjieli/faceSimilarity/attractive/gh/females/f10.jpg'
p195
aS'/raid/linjieli/faceSimilarity/attractive/gh/females/f7.jpg'
p196
aS'/raid/linjieli/faceSimilarity/attractive/gh/females/f15.jpg'
p197
aS'/raid/linjieli/faceSimilarity/attractive/gh/females/f28.jpg'
p198
aS'/raid/linjieli/faceSimilarity/attractive/gh/females/f17.jpg'
p199
aS'/raid/linjieli/faceSimilarity/attractive/gh/females/f26.jpg'
p200
aS'/raid/linjieli/faceSimilarity/attractive/gh/females/f69.jpg'
p201
aS'/raid/linjieli/faceSimilarity/attractive/gh/females/f42.jpg'
p202
aS'/raid/linjieli/faceSimilarity/attractive/gh/females/f37.jpg'
p203
aS'/raid/linjieli/faceSimilarity/attractive/gh/females/f49.jpg'
p204
aS'/raid/linjieli/faceSimilarity/attractive/gh/females/f54.jpg'
p205
aS'/raid/linjieli/faceSimilarity/attractive/gh/females/f36.jpg'
p206
aS'/raid/linjieli/faceSimilarity/attractive/gh/females/f57.jpg'
p207
aS'/raid/linjieli/faceSimilarity/attractive/gh/females/f41.jpg'
p208
as.