(dp0
I0
(lp1
S'../../processing/imageProcessing/paddedImages/cropped0.png'
p2
aS'../../processing/imageProcessing/paddedImages/cropped1.png'
p3
aS'../../processing/imageProcessing/paddedImages/cropped2.png'
p4
aS'../../processing/imageProcessing/paddedImages/cropped3.png'
p5
aS'../../processing/imageProcessing/paddedImages/cropped4.png'
p6
aS'../../processing/imageProcessing/paddedImages/cropped5.png'
p7
aS'../../processing/imageProcessing/paddedImages/cropped6.png'
p8
aS'../../processing/imageProcessing/paddedImages/cropped7.png'
p9
aS'../../processing/imageProcessing/paddedImages/cropped8.png'
p10
aS'../../processing/imageProcessing/paddedImages/cropped9.png'
p11
aS'../../processing/imageProcessing/paddedImages/cropped10.png'
p12
aS'../../processing/imageProcessing/paddedImages/cropped11.png'
p13
aS'../../processing/imageProcessing/paddedImages/cropped12.png'
p14
aS'../../processing/imageProcessing/paddedImages/cropped13.png'
p15
aS'../../processing/imageProcessing/paddedImages/cropped14.png'
p16
aNaS'../../processing/imageProcessing/paddedImages/cropped16.png'
p17
aS'../../processing/imageProcessing/paddedImages/cropped17.png'
p18
aS'../../processing/imageProcessing/paddedImages/cropped18.png'
p19
aS'../../processing/imageProcessing/paddedImages/cropped19.png'
p20
aS'../../processing/imageProcessing/paddedImages/cropped20.png'
p21
aS'../../processing/imageProcessing/paddedImages/cropped21.png'
p22
aS'../../processing/imageProcessing/paddedImages/cropped22.png'
p23
aS'../../processing/imageProcessing/paddedImages/cropped23.png'
p24
aS'../../processing/imageProcessing/paddedImages/cropped24.png'
p25
aS'../../processing/imageProcessing/paddedImages/cropped25.png'
p26
aS'../../processing/imageProcessing/paddedImages/cropped26.png'
p27
aS'../../processing/imageProcessing/paddedImages/cropped27.png'
p28
aS'../../processing/imageProcessing/paddedImages/cropped28.png'
p29
aS'../../processing/imageProcessing/paddedImages/cropped29.png'
p30
aS'../../processing/imageProcessing/paddedImages/cropped30.png'
p31
aS'../../processing/imageProcessing/paddedImages/cropped31.png'
p32
aS'../../processing/imageProcessing/paddedImages/cropped32.png'
p33
aS'../../processing/imageProcessing/paddedImages/cropped33.png'
p34
aS'../../processing/imageProcessing/paddedImages/cropped34.png'
p35
aS'../../processing/imageProcessing/paddedImages/cropped35.png'
p36
aS'../../processing/imageProcessing/paddedImages/cropped36.png'
p37
aS'../../processing/imageProcessing/paddedImages/cropped37.png'
p38
aS'../../processing/imageProcessing/paddedImages/cropped38.png'
p39
aS'../../processing/imageProcessing/paddedImages/cropped39.png'
p40
aS'../../processing/imageProcessing/paddedImages/cropped40.png'
p41
aS'../../processing/imageProcessing/paddedImages/cropped41.png'
p42
aS'../../processing/imageProcessing/paddedImages/cropped42.png'
p43
aS'../../processing/imageProcessing/paddedImages/cropped43.png'
p44
aS'../../processing/imageProcessing/paddedImages/cropped44.png'
p45
aS'../../processing/imageProcessing/paddedImages/cropped45.png'
p46
aS'../../processing/imageProcessing/paddedImages/cropped46.png'
p47
aS'../../processing/imageProcessing/paddedImages/cropped47.png'
p48
aS'../../processing/imageProcessing/paddedImages/cropped48.png'
p49
aS'../../processing/imageProcessing/paddedImages/cropped49.png'
p50
asI1
(lp51
S'../../processing/imageProcessing/paddedImages/cropped100.png'
p52
aS'../../processing/imageProcessing/paddedImages/cropped101.png'
p53
aS'../../processing/imageProcessing/paddedImages/cropped102.png'
p54
aS'../../processing/imageProcessing/paddedImages/cropped103.png'
p55
aS'../../processing/imageProcessing/paddedImages/cropped104.png'
p56
aS'../../processing/imageProcessing/paddedImages/cropped105.png'
p57
aS'../../processing/imageProcessing/paddedImages/cropped106.png'
p58
aS'../../processing/imageProcessing/paddedImages/cropped107.png'
p59
aS'../../processing/imageProcessing/paddedImages/cropped108.png'
p60
aS'../../processing/imageProcessing/paddedImages/cropped109.png'
p61
aS'../../processing/imageProcessing/paddedImages/cropped110.png'
p62
aS'../../processing/imageProcessing/paddedImages/cropped111.png'
p63
aS'../../processing/imageProcessing/paddedImages/cropped112.png'
p64
aS'../../processing/imageProcessing/paddedImages/cropped113.png'
p65
aS'../../processing/imageProcessing/paddedImages/cropped114.png'
p66
aS'../../processing/imageProcessing/paddedImages/cropped115.png'
p67
aS'../../processing/imageProcessing/paddedImages/cropped116.png'
p68
aS'../../processing/imageProcessing/paddedImages/cropped117.png'
p69
aS'../../processing/imageProcessing/paddedImages/cropped118.png'
p70
aS'../../processing/imageProcessing/paddedImages/cropped119.png'
p71
aS'../../processing/imageProcessing/paddedImages/cropped120.png'
p72
aS'../../processing/imageProcessing/paddedImages/cropped121.png'
p73
aS'../../processing/imageProcessing/paddedImages/cropped122.png'
p74
aS'../../processing/imageProcessing/paddedImages/cropped123.png'
p75
aS'../../processing/imageProcessing/paddedImages/cropped124.png'
p76
aS'../../processing/imageProcessing/paddedImages/cropped125.png'
p77
aS'../../processing/imageProcessing/paddedImages/cropped126.png'
p78
aS'../../processing/imageProcessing/paddedImages/cropped127.png'
p79
aS'../../processing/imageProcessing/paddedImages/cropped128.png'
p80
aS'../../processing/imageProcessing/paddedImages/cropped129.png'
p81
aS'../../processing/imageProcessing/paddedImages/cropped130.png'
p82
aS'../../processing/imageProcessing/paddedImages/cropped131.png'
p83
aS'../../processing/imageProcessing/paddedImages/cropped132.png'
p84
aS'../../processing/imageProcessing/paddedImages/cropped133.png'
p85
aS'../../processing/imageProcessing/paddedImages/cropped134.png'
p86
aS'../../processing/imageProcessing/paddedImages/cropped135.png'
p87
aS'../../processing/imageProcessing/paddedImages/cropped136.png'
p88
aS'../../processing/imageProcessing/paddedImages/cropped137.png'
p89
aS'../../processing/imageProcessing/paddedImages/cropped138.png'
p90
aS'../../processing/imageProcessing/paddedImages/cropped139.png'
p91
aS'../../processing/imageProcessing/paddedImages/cropped140.png'
p92
aS'../../processing/imageProcessing/paddedImages/cropped141.png'
p93
aS'../../processing/imageProcessing/paddedImages/cropped142.png'
p94
aNaS'../../processing/imageProcessing/paddedImages/cropped144.png'
p95
aS'../../processing/imageProcessing/paddedImages/cropped145.png'
p96
aS'../../processing/imageProcessing/paddedImages/cropped146.png'
p97
aS'../../processing/imageProcessing/paddedImages/cropped147.png'
p98
aS'../../processing/imageProcessing/paddedImages/cropped148.png'
p99
aS'../../processing/imageProcessing/paddedImages/cropped149.png'
p100
asI2
(lp101
S'../../processing/imageProcessing/paddedImages/cropped50.png'
p102
aS'../../processing/imageProcessing/paddedImages/cropped51.png'
p103
aS'../../processing/imageProcessing/paddedImages/cropped52.png'
p104
aS'../../processing/imageProcessing/paddedImages/cropped53.png'
p105
aS'../../processing/imageProcessing/paddedImages/cropped54.png'
p106
aS'../../processing/imageProcessing/paddedImages/cropped55.png'
p107
aS'../../processing/imageProcessing/paddedImages/cropped56.png'
p108
aS'../../processing/imageProcessing/paddedImages/cropped57.png'
p109
aS'../../processing/imageProcessing/paddedImages/cropped58.png'
p110
aS'../../processing/imageProcessing/paddedImages/cropped59.png'
p111
aS'../../processing/imageProcessing/paddedImages/cropped60.png'
p112
aS'../../processing/imageProcessing/paddedImages/cropped61.png'
p113
aS'../../processing/imageProcessing/paddedImages/cropped62.png'
p114
aS'../../processing/imageProcessing/paddedImages/cropped63.png'
p115
aS'../../processing/imageProcessing/paddedImages/cropped64.png'
p116
aS'../../processing/imageProcessing/paddedImages/cropped65.png'
p117
aS'../../processing/imageProcessing/paddedImages/cropped66.png'
p118
aS'../../processing/imageProcessing/paddedImages/cropped67.png'
p119
aS'../../processing/imageProcessing/paddedImages/cropped68.png'
p120
aS'../../processing/imageProcessing/paddedImages/cropped69.png'
p121
aS'../../processing/imageProcessing/paddedImages/cropped70.png'
p122
aS'../../processing/imageProcessing/paddedImages/cropped71.png'
p123
aS'../../processing/imageProcessing/paddedImages/cropped72.png'
p124
aS'../../processing/imageProcessing/paddedImages/cropped73.png'
p125
aS'../../processing/imageProcessing/paddedImages/cropped74.png'
p126
aS'../../processing/imageProcessing/paddedImages/cropped75.png'
p127
aS'../../processing/imageProcessing/paddedImages/cropped76.png'
p128
aNaS'../../processing/imageProcessing/paddedImages/cropped78.png'
p129
aS'../../processing/imageProcessing/paddedImages/cropped79.png'
p130
aS'../../processing/imageProcessing/paddedImages/cropped80.png'
p131
aS'../../processing/imageProcessing/paddedImages/cropped81.png'
p132
aS'../../processing/imageProcessing/paddedImages/cropped82.png'
p133
aS'../../processing/imageProcessing/paddedImages/cropped83.png'
p134
aS'../../processing/imageProcessing/paddedImages/cropped84.png'
p135
aS'../../processing/imageProcessing/paddedImages/cropped85.png'
p136
aS'../../processing/imageProcessing/paddedImages/cropped86.png'
p137
aS'../../processing/imageProcessing/paddedImages/cropped87.png'
p138
aS'../../processing/imageProcessing/paddedImages/cropped88.png'
p139
aS'../../processing/imageProcessing/paddedImages/cropped89.png'
p140
aS'../../processing/imageProcessing/paddedImages/cropped90.png'
p141
aS'../../processing/imageProcessing/paddedImages/cropped91.png'
p142
aS'../../processing/imageProcessing/paddedImages/cropped92.png'
p143
aS'../../processing/imageProcessing/paddedImages/cropped93.png'
p144
aS'../../processing/imageProcessing/paddedImages/cropped94.png'
p145
aS'../../processing/imageProcessing/paddedImages/cropped95.png'
p146
aS'../../processing/imageProcessing/paddedImages/cropped96.png'
p147
aS'../../processing/imageProcessing/paddedImages/cropped97.png'
p148
aS'../../processing/imageProcessing/paddedImages/cropped98.png'
p149
aS'../../processing/imageProcessing/paddedImages/cropped99.png'
p150
asI3
(lp151
S'../../processing/imageProcessing/paddedImages/cropped150.png'
p152
aS'../../processing/imageProcessing/paddedImages/cropped151.png'
p153
aS'../../processing/imageProcessing/paddedImages/cropped152.png'
p154
aS'../../processing/imageProcessing/paddedImages/cropped153.png'
p155
aS'../../processing/imageProcessing/paddedImages/cropped154.png'
p156
aS'../../processing/imageProcessing/paddedImages/cropped155.png'
p157
aS'../../processing/imageProcessing/paddedImages/cropped156.png'
p158
aS'../../processing/imageProcessing/paddedImages/cropped157.png'
p159
aS'../../processing/imageProcessing/paddedImages/cropped158.png'
p160
aS'../../processing/imageProcessing/paddedImages/cropped159.png'
p161
aS'../../processing/imageProcessing/paddedImages/cropped160.png'
p162
aS'../../processing/imageProcessing/paddedImages/cropped161.png'
p163
aS'../../processing/imageProcessing/paddedImages/cropped162.png'
p164
aS'../../processing/imageProcessing/paddedImages/cropped163.png'
p165
aS'../../processing/imageProcessing/paddedImages/cropped164.png'
p166
aS'../../processing/imageProcessing/paddedImages/cropped165.png'
p167
aS'../../processing/imageProcessing/paddedImages/cropped166.png'
p168
aNaS'../../processing/imageProcessing/paddedImages/cropped168.png'
p169
aS'../../processing/imageProcessing/paddedImages/cropped169.png'
p170
aS'../../processing/imageProcessing/paddedImages/cropped170.png'
p171
aS'../../processing/imageProcessing/paddedImages/cropped171.png'
p172
aS'../../processing/imageProcessing/paddedImages/cropped172.png'
p173
aS'../../processing/imageProcessing/paddedImages/cropped173.png'
p174
aS'../../processing/imageProcessing/paddedImages/cropped174.png'
p175
aS'../../processing/imageProcessing/paddedImages/cropped175.png'
p176
aS'../../processing/imageProcessing/paddedImages/cropped176.png'
p177
aS'../../processing/imageProcessing/paddedImages/cropped177.png'
p178
aS'../../processing/imageProcessing/paddedImages/cropped178.png'
p179
aS'../../processing/imageProcessing/paddedImages/cropped179.png'
p180
aS'../../processing/imageProcessing/paddedImages/cropped180.png'
p181
aS'../../processing/imageProcessing/paddedImages/cropped181.png'
p182
aS'../../processing/imageProcessing/paddedImages/cropped182.png'
p183
aS'../../processing/imageProcessing/paddedImages/cropped183.png'
p184
aS'../../processing/imageProcessing/paddedImages/cropped184.png'
p185
aS'../../processing/imageProcessing/paddedImages/cropped185.png'
p186
aS'../../processing/imageProcessing/paddedImages/cropped186.png'
p187
aS'../../processing/imageProcessing/paddedImages/cropped187.png'
p188
aS'../../processing/imageProcessing/paddedImages/cropped188.png'
p189
aS'../../processing/imageProcessing/paddedImages/cropped189.png'
p190
aS'../../processing/imageProcessing/paddedImages/cropped190.png'
p191
aS'../../processing/imageProcessing/paddedImages/cropped191.png'
p192
aS'../../processing/imageProcessing/paddedImages/cropped192.png'
p193
aS'../../processing/imageProcessing/paddedImages/cropped193.png'
p194
aS'../../processing/imageProcessing/paddedImages/cropped194.png'
p195
aS'../../processing/imageProcessing/paddedImages/cropped195.png'
p196
aS'../../processing/imageProcessing/paddedImages/cropped196.png'
p197
aS'../../processing/imageProcessing/paddedImages/cropped197.png'
p198
aS'../../processing/imageProcessing/paddedImages/cropped198.png'
p199
aS'../../processing/imageProcessing/paddedImages/cropped199.png'
p200
as.