(dp0
S'/raid/linjieli/faceSimilarity/attractive/gs/females'
p1
(lp2
S'/raid/linjieli/faceSimilarity/attractive/gs/females/C2_021.jpg\n'
p3
aS'/raid/linjieli/faceSimilarity/attractive/gs/females/C2_184.jpg\n'
p4
aS'/raid/linjieli/faceSimilarity/attractive/gs/females/C2_130.jpg\n'
p5
aS'/raid/linjieli/faceSimilarity/attractive/gs/females/C2_137.jpg\n'
p6
aS'/raid/linjieli/faceSimilarity/attractive/gs/females/C2_185.jpg\n'
p7
aS'/raid/linjieli/faceSimilarity/attractive/gs/females/C2_142.jpg\n'
p8
aS'/raid/linjieli/faceSimilarity/attractive/gs/females/C2_219.jpg\n'
p9
aS'/raid/linjieli/faceSimilarity/attractive/gs/females/C2_054.jpg\n'
p10
aS'/raid/linjieli/faceSimilarity/attractive/gs/females/C2_234.jpg\n'
p11
aS'/raid/linjieli/faceSimilarity/attractive/gs/females/C2_085.jpg\n'
p12
aS'/raid/linjieli/faceSimilarity/attractive/gs/females/C2_098.jpg\n'
p13
aS'/raid/linjieli/faceSimilarity/attractive/gs/females/C2_153.jpg\n'
p14
aS'/raid/linjieli/faceSimilarity/attractive/gs/females/C2_152.jpg\n'
p15
aS'/raid/linjieli/faceSimilarity/attractive/gs/females/C2_201.jpg\n'
p16
aS'/raid/linjieli/faceSimilarity/attractive/gs/females/C2_124.jpg\n'
p17
aS'/raid/linjieli/faceSimilarity/attractive/gs/females/C2_246.jpg\n'
p18
aS'/raid/linjieli/faceSimilarity/attractive/gs/females/C2_277.jpg\n'
p19
aS'/raid/linjieli/faceSimilarity/attractive/gs/females/C2_006.jpg\n'
p20
aS'/raid/linjieli/faceSimilarity/attractive/gs/females/C2_127.jpg\n'
p21
aS'/raid/linjieli/faceSimilarity/attractive/gs/females/C2_287.jpg\n'
p22
aS'/raid/linjieli/faceSimilarity/attractive/gs/females/C2_301.jpg\n'
p23
aS'/raid/linjieli/faceSimilarity/attractive/gs/females/C2_072.jpg\n'
p24
aS'/raid/linjieli/faceSimilarity/attractive/gs/females/C2_143.jpg\n'
p25
aS'/raid/linjieli/faceSimilarity/attractive/gs/females/C2_217.jpg\n'
p26
aS'/raid/linjieli/faceSimilarity/attractive/gs/females/C2_015.jpg\n'
p27
aS'/raid/linjieli/faceSimilarity/attractive/gs/females/C2_300.jpg\n'
p28
aS'/raid/linjieli/faceSimilarity/attractive/gs/females/C2_215.jpg\n'
p29
aS'/raid/linjieli/faceSimilarity/attractive/gs/females/C2_025.jpg\n'
p30
aS'/raid/linjieli/faceSimilarity/attractive/gs/females/C2_131.jpg\n'
p31
aS'/raid/linjieli/faceSimilarity/attractive/gs/females/C2_303.jpg\n'
p32
aS'/raid/linjieli/faceSimilarity/attractive/gs/females/C2_294.jpg\n'
p33
aS'/raid/linjieli/faceSimilarity/attractive/gs/females/C2_094.jpg\n'
p34
aS'/raid/linjieli/faceSimilarity/attractive/gs/females/C2_135.jpg\n'
p35
aS'/raid/linjieli/faceSimilarity/attractive/gs/females/C2_117.jpg\n'
p36
aS'/raid/linjieli/faceSimilarity/attractive/gs/females/C2_291.jpg\n'
p37
aS'/raid/linjieli/faceSimilarity/attractive/gs/females/C2_132.jpg\n'
p38
aS'/raid/linjieli/faceSimilarity/attractive/gs/females/C2_088.jpg\n'
p39
aS'/raid/linjieli/faceSimilarity/attractive/gs/females/C2_299.jpg\n'
p40
aS'/raid/linjieli/faceSimilarity/attractive/gs/females/C2_254.jpg\n'
p41
aS'/raid/linjieli/faceSimilarity/attractive/gs/females/C2_290.jpg\n'
p42
aS'/raid/linjieli/faceSimilarity/attractive/gs/females/C2_059.jpg\n'
p43
aS'/raid/linjieli/faceSimilarity/attractive/gs/females/C2_089.jpg\n'
p44
aS'/raid/linjieli/faceSimilarity/attractive/gs/females/C2_028.jpg\n'
p45
aS'/raid/linjieli/faceSimilarity/attractive/gs/females/C2_179.jpg\n'
p46
aS'/raid/linjieli/faceSimilarity/attractive/gs/females/C2_257.jpg\n'
p47
aS'/raid/linjieli/faceSimilarity/attractive/gs/females/C2_037.jpg\n'
p48
aS'/raid/linjieli/faceSimilarity/attractive/gs/females/C2_253.jpg\n'
p49
aS'/raid/linjieli/faceSimilarity/attractive/gs/females/C2_024.jpg\n'
p50
aS'/raid/linjieli/faceSimilarity/attractive/gs/females/C2_296.jpg\n'
p51
aS'/raid/linjieli/faceSimilarity/attractive/gs/females/C2_216.jpg\n'
p52
aS'/raid/linjieli/faceSimilarity/attractive/gs/females/C2_223.jpg\n'
p53
aS'/raid/linjieli/faceSimilarity/attractive/gs/females/C2_304.jpg\n'
p54
aS'/raid/linjieli/faceSimilarity/attractive/gs/females/C2_042.jpg\n'
p55
aS'/raid/linjieli/faceSimilarity/attractive/gs/females/C2_007.jpg\n'
p56
aS'/raid/linjieli/faceSimilarity/attractive/gs/females/C2_039.jpg\n'
p57
aS'/raid/linjieli/faceSimilarity/attractive/gs/females/C2_182.jpg\n'
p58
aS'/raid/linjieli/faceSimilarity/attractive/gs/females/C2_160.jpg\n'
p59
aS'/raid/linjieli/faceSimilarity/attractive/gs/females/C2_288.jpg\n'
p60
aS'/raid/linjieli/faceSimilarity/attractive/gs/females/C2_050.jpg\n'
p61
aS'/raid/linjieli/faceSimilarity/attractive/gs/females/C2_286.jpg\n'
p62
aS'/raid/linjieli/faceSimilarity/attractive/gs/females/C2_203.jpg\n'
p63
aS'/raid/linjieli/faceSimilarity/attractive/gs/females/C2_210.jpg\n'
p64
aS'/raid/linjieli/faceSimilarity/attractive/gs/females/C2_023.jpg\n'
p65
aS'/raid/linjieli/faceSimilarity/attractive/gs/females/C2_071.jpg\n'
p66
aS'/raid/linjieli/faceSimilarity/attractive/gs/females/C2_032.jpg\n'
p67
aS'/raid/linjieli/faceSimilarity/attractive/gs/females/C2_178.jpg\n'
p68
aS'/raid/linjieli/faceSimilarity/attractive/gs/females/C2_244.jpg\n'
p69
aS'/raid/linjieli/faceSimilarity/attractive/gs/females/C2_167.jpg\n'
p70
aS'/raid/linjieli/faceSimilarity/attractive/gs/females/C2_008.jpg\n'
p71
aS'/raid/linjieli/faceSimilarity/attractive/gs/females/C2_010.jpg\n'
p72
asS'/raid/linjieli/faceSimilarity/attractive/mit/males'
p73
(lp74
S'/raid/linjieli/faceSimilarity/attractive/mit/males/i59.jpg\n'
p75
aS'/raid/linjieli/faceSimilarity/attractive/mit/males/i49.jpg\n'
p76
aS'/raid/linjieli/faceSimilarity/attractive/mit/males/i56.jpg\n'
p77
aS'/raid/linjieli/faceSimilarity/attractive/mit/males/i68.jpg\n'
p78
aS'/raid/linjieli/faceSimilarity/attractive/mit/males/i19.jpg\n'
p79
aS'/raid/linjieli/faceSimilarity/attractive/mit/males/i12.jpg\n'
p80
aS'/raid/linjieli/faceSimilarity/attractive/mit/males/i9.jpg\n'
p81
aS'/raid/linjieli/faceSimilarity/attractive/mit/males/i7.jpg\n'
p82
aS'/raid/linjieli/faceSimilarity/attractive/mit/males/i39.jpg\n'
p83
aS'/raid/linjieli/faceSimilarity/attractive/mit/males/i22.jpg\n'
p84
aS'/raid/linjieli/faceSimilarity/attractive/mit/males/i62.jpg\n'
p85
aS'/raid/linjieli/faceSimilarity/attractive/mit/males/i74.jpg\n'
p86
aS'/raid/linjieli/faceSimilarity/attractive/mit/males/i61.jpg\n'
p87
aS'/raid/linjieli/faceSimilarity/attractive/mit/males/i60.jpg\n'
p88
aS'/raid/linjieli/faceSimilarity/attractive/mit/males/i1.jpg\n'
p89
aS'/raid/linjieli/faceSimilarity/attractive/mit/males/i28.jpg\n'
p90
aS'/raid/linjieli/faceSimilarity/attractive/mit/males/i32.jpg\n'
p91
aS'/raid/linjieli/faceSimilarity/attractive/mit/males/i43.jpg\n'
p92
aS'/raid/linjieli/faceSimilarity/attractive/mit/males/i66.jpg\n'
p93
aS'/raid/linjieli/faceSimilarity/attractive/mit/males/i29.jpg\n'
p94
aS'/raid/linjieli/faceSimilarity/attractive/mit/males/i37.jpg\n'
p95
aS'/raid/linjieli/faceSimilarity/attractive/mit/males/i23.jpg\n'
p96
aS'/raid/linjieli/faceSimilarity/attractive/mit/males/i34.jpg\n'
p97
aS'/raid/linjieli/faceSimilarity/attractive/mit/males/i53.jpg\n'
p98
aS'/raid/linjieli/faceSimilarity/attractive/mit/males/i70.jpg\n'
p99
aS'/raid/linjieli/faceSimilarity/attractive/mit/males/i17.jpg\n'
p100
aS'/raid/linjieli/faceSimilarity/attractive/mit/males/i67.jpg\n'
p101
aS'/raid/linjieli/faceSimilarity/attractive/mit/males/i64.jpg\n'
p102
aS'/raid/linjieli/faceSimilarity/attractive/mit/males/i15.jpg\n'
p103
aS'/raid/linjieli/faceSimilarity/attractive/mit/males/i4.jpg\n'
p104
aS'/raid/linjieli/faceSimilarity/attractive/mit/males/i18.jpg\n'
p105
aS'/raid/linjieli/faceSimilarity/attractive/mit/males/i13.jpg\n'
p106
aS'/raid/linjieli/faceSimilarity/attractive/mit/males/i10.jpg\n'
p107
aS'/raid/linjieli/faceSimilarity/attractive/mit/males/i72.jpg\n'
p108
aS'/raid/linjieli/faceSimilarity/attractive/mit/males/i41.jpg\n'
p109
aS'/raid/linjieli/faceSimilarity/attractive/mit/males/i69.jpg\n'
p110
aS'/raid/linjieli/faceSimilarity/attractive/mit/males/i44.jpg\n'
p111
aS'/raid/linjieli/faceSimilarity/attractive/mit/males/i73.jpg\n'
p112
asS'/raid/linjieli/faceSimilarity/attractive/gh/females'
p113
(lp114
S'/raid/linjieli/faceSimilarity/attractive/gh/females/f61.jpg\n'
p115
aS'/raid/linjieli/faceSimilarity/attractive/gh/females/f60.jpg\n'
p116
aS'/raid/linjieli/faceSimilarity/attractive/gh/females/f31.jpg\n'
p117
aS'/raid/linjieli/faceSimilarity/attractive/gh/females/f11.jpg\n'
p118
aS'/raid/linjieli/faceSimilarity/attractive/gh/females/f35.jpg\n'
p119
aS'/raid/linjieli/faceSimilarity/attractive/gh/females/f22.jpg\n'
p120
aS'/raid/linjieli/faceSimilarity/attractive/gh/females/f38.jpg\n'
p121
aS'/raid/linjieli/faceSimilarity/attractive/gh/females/f27.jpg\n'
p122
aS'/raid/linjieli/faceSimilarity/attractive/gh/females/f69.jpg\n'
p123
aS'/raid/linjieli/faceSimilarity/attractive/gh/females/f5.jpg\n'
p124
aS'/raid/linjieli/faceSimilarity/attractive/gh/females/f33.jpg\n'
p125
aS'/raid/linjieli/faceSimilarity/attractive/gh/females/f56.jpg\n'
p126
aS'/raid/linjieli/faceSimilarity/attractive/gh/females/f68.jpg\n'
p127
aS'/raid/linjieli/faceSimilarity/attractive/gh/females/f51.jpg\n'
p128
aS'/raid/linjieli/faceSimilarity/attractive/gh/females/f58.jpg\n'
p129
aS'/raid/linjieli/faceSimilarity/attractive/gh/females/f34.jpg\n'
p130
aS'/raid/linjieli/faceSimilarity/attractive/gh/females/f47.jpg\n'
p131
aS'/raid/linjieli/faceSimilarity/attractive/gh/females/f13.jpg\n'
p132
aS'/raid/linjieli/faceSimilarity/attractive/gh/females/f24.jpg\n'
p133
aS'/raid/linjieli/faceSimilarity/attractive/gh/females/f12.jpg\n'
p134
aS'/raid/linjieli/faceSimilarity/attractive/gh/females/f66.jpg\n'
p135
aS'/raid/linjieli/faceSimilarity/attractive/gh/females/f44.jpg\n'
p136
aS'/raid/linjieli/faceSimilarity/attractive/gh/females/f6.jpg\n'
p137
aS'/raid/linjieli/faceSimilarity/attractive/gh/females/f32.jpg\n'
p138
aS'/raid/linjieli/faceSimilarity/attractive/gh/females/f53.jpg\n'
p139
aS'/raid/linjieli/faceSimilarity/attractive/gh/females/f18.jpg\n'
p140
aS'/raid/linjieli/faceSimilarity/attractive/gh/females/f3.jpg\n'
p141
aS'/raid/linjieli/faceSimilarity/attractive/gh/females/f59.jpg\n'
p142
aS'/raid/linjieli/faceSimilarity/attractive/gh/females/f7.jpg\n'
p143
aS'/raid/linjieli/faceSimilarity/attractive/gh/females/f28.jpg\n'
p144
aS'/raid/linjieli/faceSimilarity/attractive/gh/females/f10.jpg\n'
p145
aS'/raid/linjieli/faceSimilarity/attractive/gh/females/f23.jpg\n'
p146
aS'/raid/linjieli/faceSimilarity/attractive/gh/females/f8.jpg\n'
p147
aS'/raid/linjieli/faceSimilarity/attractive/gh/females/f67.jpg\n'
p148
aS'/raid/linjieli/faceSimilarity/attractive/gh/females/f29.jpg\n'
p149
aS'/raid/linjieli/faceSimilarity/attractive/gh/females/f65.jpg\n'
p150
aS'/raid/linjieli/faceSimilarity/attractive/gh/females/f62.jpg\n'
p151
aS'/raid/linjieli/faceSimilarity/attractive/gh/females/f55.jpg\n'
p152
aS'/raid/linjieli/faceSimilarity/attractive/gh/females/f52.jpg\n'
p153
aS'/raid/linjieli/faceSimilarity/attractive/gh/females/f39.jpg\n'
p154
aS'/raid/linjieli/faceSimilarity/attractive/gh/females/f40.jpg\n'
p155
aS'/raid/linjieli/faceSimilarity/attractive/gh/females/f21.jpg\n'
p156
aS'/raid/linjieli/faceSimilarity/attractive/gh/females/f37.jpg\n'
p157
aS'/raid/linjieli/faceSimilarity/attractive/gh/females/f57.jpg\n'
p158
aS'/raid/linjieli/faceSimilarity/attractive/gh/females/f49.jpg\n'
p159
aS'/raid/linjieli/faceSimilarity/attractive/gh/females/f42.jpg\n'
p160
aS'/raid/linjieli/faceSimilarity/attractive/gh/females/f16.jpg\n'
p161
aS'/raid/linjieli/faceSimilarity/attractive/gh/females/f2.jpg\n'
p162
aS'/raid/linjieli/faceSimilarity/attractive/gh/females/f43.jpg\n'
p163
aS'/raid/linjieli/faceSimilarity/attractive/gh/females/f45.jpg\n'
p164
aS'/raid/linjieli/faceSimilarity/attractive/gh/females/f50.jpg\n'
p165
aS'/raid/linjieli/faceSimilarity/attractive/gh/females/f14.jpg\n'
p166
aS'/raid/linjieli/faceSimilarity/attractive/gh/females/f9.jpg\n'
p167
aS'/raid/linjieli/faceSimilarity/attractive/gh/females/f54.jpg\n'
p168
aS'/raid/linjieli/faceSimilarity/attractive/gh/females/f17.jpg\n'
p169
aS'/raid/linjieli/faceSimilarity/attractive/gh/females/f15.jpg\n'
p170
aS'/raid/linjieli/faceSimilarity/attractive/gh/females/f64.jpg\n'
p171
aS'/raid/linjieli/faceSimilarity/attractive/gh/females/f41.jpg\n'
p172
aS'/raid/linjieli/faceSimilarity/attractive/gh/females/f1.jpg\n'
p173
aS'/raid/linjieli/faceSimilarity/attractive/gh/females/f20.jpg\n'
p174
aS'/raid/linjieli/faceSimilarity/attractive/gh/females/f46.jpg\n'
p175
aS'/raid/linjieli/faceSimilarity/attractive/gh/females/f30.jpg\n'
p176
aS'/raid/linjieli/faceSimilarity/attractive/gh/females/f63.jpg\n'
p177
aS'/raid/linjieli/faceSimilarity/attractive/gh/females/f25.jpg\n'
p178
aS'/raid/linjieli/faceSimilarity/attractive/gh/females/f36.jpg\n'
p179
aS'/raid/linjieli/faceSimilarity/attractive/gh/females/f48.jpg\n'
p180
aS'/raid/linjieli/faceSimilarity/attractive/gh/females/f4.jpg\n'
p181
aS'/raid/linjieli/faceSimilarity/attractive/gh/females/f70.jpg\n'
p182
aS'/raid/linjieli/faceSimilarity/attractive/gh/females/f26.jpg\n'
p183
aS'/raid/linjieli/faceSimilarity/attractive/gh/females/f19.jpg\n'
p184
asS'/raid/linjieli/faceSimilarity/attractive/ngs/females'
p185
(lp186
S'/raid/linjieli/faceSimilarity/attractive/ngs/females/image_0340.jpg\n'
p187
aS'/raid/linjieli/faceSimilarity/attractive/ngs/females/00416_940422_fa_ppm.jpg\n'
p188
aS'/raid/linjieli/faceSimilarity/attractive/ngs/females/00424_940422_fa_ppm.jpg\n'
p189
aS'/raid/linjieli/faceSimilarity/attractive/ngs/females/BF03NES.jpg\n'
p190
aS'/raid/linjieli/faceSimilarity/attractive/ngs/females/image_0172.jpg\n'
p191
aS'/raid/linjieli/faceSimilarity/attractive/ngs/females/AF27NES.jpg\n'
p192
aS'/raid/linjieli/faceSimilarity/attractive/ngs/females/AF21NES.jpg\n'
p193
aS'/raid/linjieli/faceSimilarity/attractive/ngs/females/AF07NES.jpg\n'
p194
aS'/raid/linjieli/faceSimilarity/attractive/ngs/females/BF11NES.jpg\n'
p195
aS'/raid/linjieli/faceSimilarity/attractive/ngs/females/00391_940422_fa_ppm.jpg\n'
p196
aS'/raid/linjieli/faceSimilarity/attractive/ngs/females/00398_940422_fa_ppm.jpg\n'
p197
aS'/raid/linjieli/faceSimilarity/attractive/ngs/females/00324_940422_fa_ppm.jpg\n'
p198
aS'/raid/linjieli/faceSimilarity/attractive/ngs/females/08F_NE_C.jpg\n'
p199
aS'/raid/linjieli/faceSimilarity/attractive/ngs/females/BF32NES.jpg\n'
p200
aS'/raid/linjieli/faceSimilarity/attractive/ngs/females/AF28NES.jpg\n'
p201
aS'/raid/linjieli/faceSimilarity/attractive/ngs/females/BF12NES.jpg\n'
p202
aS'/raid/linjieli/faceSimilarity/attractive/ngs/females/00412_940422_fa_ppm.jpg\n'
p203
aS'/raid/linjieli/faceSimilarity/attractive/ngs/females/AF22NES.jpg\n'
p204
aS'/raid/linjieli/faceSimilarity/attractive/ngs/females/00343_940422_fa_ppm.jpg\n'
p205
aS'/raid/linjieli/faceSimilarity/attractive/ngs/females/00379_940422_fa_ppm.jpg\n'
p206
aS'/raid/linjieli/faceSimilarity/attractive/ngs/females/02F_NE_C.jpg\n'
p207
aS'/raid/linjieli/faceSimilarity/attractive/ngs/females/AF29NES.jpg\n'
p208
aS'/raid/linjieli/faceSimilarity/attractive/ngs/females/AF17NES.jpg\n'
p209
aS'/raid/linjieli/faceSimilarity/attractive/ngs/females/BF08NES.jpg\n'
p210
aS'/raid/linjieli/faceSimilarity/attractive/ngs/females/05F_NE_C.jpg\n'
p211
aS'/raid/linjieli/faceSimilarity/attractive/ngs/females/03F_NE_C.jpg\n'
p212
aS'/raid/linjieli/faceSimilarity/attractive/ngs/females/00423_940422_fa_ppm.jpg\n'
p213
aS'/raid/linjieli/faceSimilarity/attractive/ngs/females/00327_940422_fa_ppm.jpg\n'
p214
aS'/raid/linjieli/faceSimilarity/attractive/ngs/females/07F_NE_C.jpg\n'
p215
aS'/raid/linjieli/faceSimilarity/attractive/ngs/females/00314_940422_fa_ppm.jpg\n'
p216
aS'/raid/linjieli/faceSimilarity/attractive/ngs/females/AF35NES.jpg\n'
p217
aS'/raid/linjieli/faceSimilarity/attractive/ngs/females/AF18NES.jpg\n'
p218
aS'/raid/linjieli/faceSimilarity/attractive/ngs/females/00399_940422_fa_ppm.jpg\n'
p219
aS'/raid/linjieli/faceSimilarity/attractive/ngs/females/AF31NES.jpg\n'
p220
aS'/raid/linjieli/faceSimilarity/attractive/ngs/females/00328_940422_fa_ppm.jpg\n'
p221
aS'/raid/linjieli/faceSimilarity/attractive/ngs/females/BF14NES.jpg\n'
p222
aS'/raid/linjieli/faceSimilarity/attractive/ngs/females/10F_NE_C.jpg\n'
p223
aS'/raid/linjieli/faceSimilarity/attractive/ngs/females/00090_931230_fa_ppm.jpg\n'
p224
aS'/raid/linjieli/faceSimilarity/attractive/ngs/females/BF13NES.jpg\n'
p225
aS'/raid/linjieli/faceSimilarity/attractive/ngs/females/AF09NES.jpg\n'
p226
aS'/raid/linjieli/faceSimilarity/attractive/ngs/females/00419_940422_fa_ppm.jpg\n'
p227
aS'/raid/linjieli/faceSimilarity/attractive/ngs/females/09F_NE_C.jpg\n'
p228
aS'/raid/linjieli/faceSimilarity/attractive/ngs/females/00455_940422_fa_ppm.jpg\n'
p229
aS'/raid/linjieli/faceSimilarity/attractive/ngs/females/00420_940422_fa_ppm.jpg\n'
p230
aS'/raid/linjieli/faceSimilarity/attractive/ngs/females/BF04NES.jpg\n'
p231
aS'/raid/linjieli/faceSimilarity/attractive/ngs/females/00214_940128_fa_ppm.jpg\n'
p232
aS'/raid/linjieli/faceSimilarity/attractive/ngs/females/BF24NES.jpg\n'
p233
aS'/raid/linjieli/faceSimilarity/attractive/ngs/females/00456_940422_fa_ppm.jpg\n'
p234
aS'/raid/linjieli/faceSimilarity/attractive/ngs/females/01F_NE_C.jpg\n'
p235
aS'/raid/linjieli/faceSimilarity/attractive/ngs/females/woman73.jpg\n'
p236
aS'/raid/linjieli/faceSimilarity/attractive/ngs/females/BF05NES.jpg\n'
p237
aS'/raid/linjieli/faceSimilarity/attractive/ngs/females/00428_940422_fa_ppm.jpg\n'
p238
aS'/raid/linjieli/faceSimilarity/attractive/ngs/females/AF19NES.jpg\n'
p239
aS'/raid/linjieli/faceSimilarity/attractive/ngs/females/00313_940422_fa_ppm.jpg\n'
p240
aS'/raid/linjieli/faceSimilarity/attractive/ngs/females/00227_940128_fa_ppm.jpg\n'
p241
aS'/raid/linjieli/faceSimilarity/attractive/ngs/females/BF26NES.jpg\n'
p242
aS'/raid/linjieli/faceSimilarity/attractive/ngs/females/06F_NE_C.jpg\n'
p243
aS'/raid/linjieli/faceSimilarity/attractive/ngs/females/BF25NES.jpg\n'
p244
aS'/raid/linjieli/faceSimilarity/attractive/ngs/females/00125_931230_fa_ppm.jpg\n'
p245
aS'/raid/linjieli/faceSimilarity/attractive/ngs/females/AF02NES.jpg\n'
p246
aS'/raid/linjieli/faceSimilarity/attractive/ngs/females/00071_940128_fa_ppm.jpg\n'
p247
aS'/raid/linjieli/faceSimilarity/attractive/ngs/females/AF20NES.jpg\n'
p248
aS'/raid/linjieli/faceSimilarity/attractive/ngs/females/BF34NES.jpg\n'
p249
aS'/raid/linjieli/faceSimilarity/attractive/ngs/females/AF01NES.jpg\n'
p250
aS'/raid/linjieli/faceSimilarity/attractive/ngs/females/AF06NES.jpg\n'
p251
aS'/raid/linjieli/faceSimilarity/attractive/ngs/females/BF23NES.jpg\n'
p252
aS'/raid/linjieli/faceSimilarity/attractive/ngs/females/00208_940128_fa_ppm.jpg\n'
p253
aS'/raid/linjieli/faceSimilarity/attractive/ngs/females/BF30NES.jpg\n'
p254
aS'/raid/linjieli/faceSimilarity/attractive/ngs/females/00394_940422_fa_ppm.jpg\n'
p255
asS'/raid/linjieli/faceSimilarity/attractive/gs/males'
p256
(lp257
S'/raid/linjieli/faceSimilarity/attractive/gs/males/C2_064.jpg\n'
p258
aS'/raid/linjieli/faceSimilarity/attractive/gs/males/C2_159.jpg\n'
p259
aS'/raid/linjieli/faceSimilarity/attractive/gs/males/C2_239.jpg\n'
p260
aS'/raid/linjieli/faceSimilarity/attractive/gs/males/C2_205.jpg\n'
p261
aS'/raid/linjieli/faceSimilarity/attractive/gs/males/C2_278.jpg\n'
p262
aS'/raid/linjieli/faceSimilarity/attractive/gs/males/C2_045.jpg\n'
p263
aS'/raid/linjieli/faceSimilarity/attractive/gs/males/C2_146.jpg\n'
p264
aS'/raid/linjieli/faceSimilarity/attractive/gs/males/C2_147.jpg\n'
p265
aS'/raid/linjieli/faceSimilarity/attractive/gs/males/C2_208.jpg\n'
p266
aS'/raid/linjieli/faceSimilarity/attractive/gs/males/C2_204.jpg\n'
p267
aS'/raid/linjieli/faceSimilarity/attractive/gs/males/C2_281.jpg\n'
p268
aS'/raid/linjieli/faceSimilarity/attractive/gs/males/C2_017.jpg\n'
p269
aS'/raid/linjieli/faceSimilarity/attractive/gs/males/C2_194.jpg\n'
p270
aS'/raid/linjieli/faceSimilarity/attractive/gs/males/C2_230.jpg\n'
p271
aS'/raid/linjieli/faceSimilarity/attractive/gs/males/C2_166.jpg\n'
p272
aS'/raid/linjieli/faceSimilarity/attractive/gs/males/C2_172.jpg\n'
p273
aS'/raid/linjieli/faceSimilarity/attractive/gs/males/C2_199.jpg\n'
p274
aS'/raid/linjieli/faceSimilarity/attractive/gs/males/C2_238.jpg\n'
p275
aS'/raid/linjieli/faceSimilarity/attractive/gs/males/C2_031.jpg\n'
p276
aS'/raid/linjieli/faceSimilarity/attractive/gs/males/C2_218.jpg\n'
p277
aS'/raid/linjieli/faceSimilarity/attractive/gs/males/C2_114.jpg\n'
p278
aS'/raid/linjieli/faceSimilarity/attractive/gs/males/C2_109.jpg\n'
p279
aS'/raid/linjieli/faceSimilarity/attractive/gs/males/C2_133.jpg\n'
p280
aS'/raid/linjieli/faceSimilarity/attractive/gs/males/C2_106.jpg\n'
p281
aS'/raid/linjieli/faceSimilarity/attractive/gs/males/C2_293.jpg\n'
p282
aS'/raid/linjieli/faceSimilarity/attractive/gs/males/C2_271.jpg\n'
p283
aS'/raid/linjieli/faceSimilarity/attractive/gs/males/C2_079.jpg\n'
p284
aS'/raid/linjieli/faceSimilarity/attractive/gs/males/C2_046.jpg\n'
p285
aS'/raid/linjieli/faceSimilarity/attractive/gs/males/C2_260.jpg\n'
p286
aS'/raid/linjieli/faceSimilarity/attractive/gs/males/C2_175.jpg\n'
p287
aS'/raid/linjieli/faceSimilarity/attractive/gs/males/C2_113.jpg\n'
p288
aS'/raid/linjieli/faceSimilarity/attractive/gs/males/C2_047.jpg\n'
p289
aS'/raid/linjieli/faceSimilarity/attractive/gs/males/C2_225.jpg\n'
p290
aS'/raid/linjieli/faceSimilarity/attractive/gs/males/C2_107.jpg\n'
p291
aS'/raid/linjieli/faceSimilarity/attractive/gs/males/C2_249.jpg\n'
p292
aS'/raid/linjieli/faceSimilarity/attractive/gs/males/C2_267.jpg\n'
p293
aS'/raid/linjieli/faceSimilarity/attractive/gs/males/C2_258.jpg\n'
p294
aS'/raid/linjieli/faceSimilarity/attractive/gs/males/C2_048.jpg\n'
p295
aS'/raid/linjieli/faceSimilarity/attractive/gs/males/C2_090.jpg\n'
p296
aS'/raid/linjieli/faceSimilarity/attractive/gs/males/C2_086.jpg\n'
p297
aS'/raid/linjieli/faceSimilarity/attractive/gs/males/C2_202.jpg\n'
p298
aS'/raid/linjieli/faceSimilarity/attractive/gs/males/C2_158.jpg\n'
p299
aS'/raid/linjieli/faceSimilarity/attractive/gs/males/C2_126.jpg\n'
p300
aS'/raid/linjieli/faceSimilarity/attractive/gs/males/C2_259.jpg\n'
p301
aS'/raid/linjieli/faceSimilarity/attractive/gs/males/C2_226.jpg\n'
p302
aS'/raid/linjieli/faceSimilarity/attractive/gs/males/C2_284.jpg\n'
p303
aS'/raid/linjieli/faceSimilarity/attractive/gs/males/C2_103.jpg\n'
p304
aS'/raid/linjieli/faceSimilarity/attractive/gs/males/C2_095.jpg\n'
p305
aS'/raid/linjieli/faceSimilarity/attractive/gs/males/C2_270.jpg\n'
p306
aS'/raid/linjieli/faceSimilarity/attractive/gs/males/C2_264.jpg\n'
p307
aS'/raid/linjieli/faceSimilarity/attractive/gs/males/C2_231.jpg\n'
p308
aS'/raid/linjieli/faceSimilarity/attractive/gs/males/C2_027.jpg\n'
p309
aS'/raid/linjieli/faceSimilarity/attractive/gs/males/C2_237.jpg\n'
p310
aS'/raid/linjieli/faceSimilarity/attractive/gs/males/C2_082.jpg\n'
p311
aS'/raid/linjieli/faceSimilarity/attractive/gs/males/C2_297.jpg\n'
p312
aS'/raid/linjieli/faceSimilarity/attractive/gs/males/C2_084.jpg\n'
p313
aS'/raid/linjieli/faceSimilarity/attractive/gs/males/C2_083.jpg\n'
p314
aS'/raid/linjieli/faceSimilarity/attractive/gs/males/C2_036.jpg\n'
p315
aS'/raid/linjieli/faceSimilarity/attractive/gs/males/C2_229.jpg\n'
p316
aS'/raid/linjieli/faceSimilarity/attractive/gs/males/C2_190.jpg\n'
p317
aS'/raid/linjieli/faceSimilarity/attractive/gs/males/C2_035.jpg\n'
p318
aS'/raid/linjieli/faceSimilarity/attractive/gs/males/C2_224.jpg\n'
p319
aS'/raid/linjieli/faceSimilarity/attractive/gs/males/C2_227.jpg\n'
p320
aS'/raid/linjieli/faceSimilarity/attractive/gs/males/C2_285.jpg\n'
p321
aS'/raid/linjieli/faceSimilarity/attractive/gs/males/C2_102.jpg\n'
p322
aS'/raid/linjieli/faceSimilarity/attractive/gs/males/C2_155.jpg\n'
p323
aS'/raid/linjieli/faceSimilarity/attractive/gs/males/C2_207.jpg\n'
p324
aS'/raid/linjieli/faceSimilarity/attractive/gs/males/C2_081.jpg\n'
p325
aS'/raid/linjieli/faceSimilarity/attractive/gs/males/C2_209.jpg\n'
p326
aS'/raid/linjieli/faceSimilarity/attractive/gs/males/C2_140.jpg\n'
p327
asS'/raid/linjieli/faceSimilarity/attractive/ngs/males'
p328
(lp329
S'/raid/linjieli/faceSimilarity/attractive/ngs/males/AM33NES.jpg\n'
p330
aS'/raid/linjieli/faceSimilarity/attractive/ngs/males/AM18NES.jpg\n'
p331
aS'/raid/linjieli/faceSimilarity/attractive/ngs/males/00120_931230_fa_ppm.jpg\n'
p332
aS'/raid/linjieli/faceSimilarity/attractive/ngs/males/AM28NES.jpg\n'
p333
aS'/raid/linjieli/faceSimilarity/attractive/ngs/males/BM25NES.jpg\n'
p334
aS'/raid/linjieli/faceSimilarity/attractive/ngs/males/25M_NE_C.jpg\n'
p335
aS'/raid/linjieli/faceSimilarity/attractive/ngs/males/image_0304.jpg\n'
p336
aS'/raid/linjieli/faceSimilarity/attractive/ngs/males/35M_NE_C.jpg\n'
p337
aS'/raid/linjieli/faceSimilarity/attractive/ngs/males/31M_NE_C.jpg\n'
p338
aS'/raid/linjieli/faceSimilarity/attractive/ngs/males/28M_NE_C.jpg\n'
p339
aS'/raid/linjieli/faceSimilarity/attractive/ngs/males/27M_NE_C.jpg\n'
p340
aS'/raid/linjieli/faceSimilarity/attractive/ngs/males/00323_940422_fa_ppm.jpg\n'
p341
aS'/raid/linjieli/faceSimilarity/attractive/ngs/males/26M_NE_C.jpg\n'
p342
aS'/raid/linjieli/faceSimilarity/attractive/ngs/males/image_0224.jpg\n'
p343
aS'/raid/linjieli/faceSimilarity/attractive/ngs/males/00248_940128_fa_ppm.jpg\n'
p344
aS'/raid/linjieli/faceSimilarity/attractive/ngs/males/00321_940422_fa_ppm.jpg\n'
p345
aS'/raid/linjieli/faceSimilarity/attractive/ngs/males/29M_NE_C.jpg\n'
p346
aS'/raid/linjieli/faceSimilarity/attractive/ngs/males/AM30NES.jpg\n'
p347
aS'/raid/linjieli/faceSimilarity/attractive/ngs/males/36M_NE_C.jpg\n'
p348
aS'/raid/linjieli/faceSimilarity/attractive/ngs/males/00086_931230_fa_ppm.jpg\n'
p349
aS'/raid/linjieli/faceSimilarity/attractive/ngs/males/BM21NES.jpg\n'
p350
aS'/raid/linjieli/faceSimilarity/attractive/ngs/males/image_0267.jpg\n'
p351
aS'/raid/linjieli/faceSimilarity/attractive/ngs/males/34M_NE_C.jpg\n'
p352
aS'/raid/linjieli/faceSimilarity/attractive/ngs/males/00138_931230_fa_ppm.jpg\n'
p353
aS'/raid/linjieli/faceSimilarity/attractive/ngs/males/AM29NES.jpg\n'
p354
aS'/raid/linjieli/faceSimilarity/attractive/ngs/males/00115_931230_fa_ppm.jpg\n'
p355
aS'/raid/linjieli/faceSimilarity/attractive/ngs/males/00348_940422_fa_ppm.jpg\n'
p356
aS'/raid/linjieli/faceSimilarity/attractive/ngs/males/BM31NES.jpg\n'
p357
aS'/raid/linjieli/faceSimilarity/attractive/ngs/males/BM02NES.jpg\n'
p358
aS'/raid/linjieli/faceSimilarity/attractive/ngs/males/00076_931230_fa_ppm.jpg\n'
p359
aS'/raid/linjieli/faceSimilarity/attractive/ngs/males/AM06NES.jpg\n'
p360
aS'/raid/linjieli/faceSimilarity/attractive/ngs/males/AM17NES.jpg\n'
p361
aS'/raid/linjieli/faceSimilarity/attractive/ngs/males/24M_NE_C.jpg\n'
p362
aS'/raid/linjieli/faceSimilarity/attractive/ngs/males/image_0252.jpg\n'
p363
aS'/raid/linjieli/faceSimilarity/attractive/ngs/males/BM05NES.jpg\n'
p364
aS'/raid/linjieli/faceSimilarity/attractive/ngs/males/AM01NES.jpg\n'
p365
aS'/raid/linjieli/faceSimilarity/attractive/ngs/males/00360_940422_fa_ppm.jpg\n'
p366
aS'/raid/linjieli/faceSimilarity/attractive/ngs/males/23M_NE_C.jpg\n'
p367
aS'/raid/linjieli/faceSimilarity/attractive/ngs/males/AM10NES.jpg\n'
p368
aS'/raid/linjieli/faceSimilarity/attractive/ngs/males/32M_NE_C.jpg\n'
p369
aS'/raid/linjieli/faceSimilarity/attractive/ngs/males/BM16NES.jpg\n'
p370
aS'/raid/linjieli/faceSimilarity/attractive/ngs/males/00320_940422_fa_ppm.jpg\n'
p371
aS'/raid/linjieli/faceSimilarity/attractive/ngs/males/37M_NE_C.jpg\n'
p372
aS'/raid/linjieli/faceSimilarity/attractive/ngs/males/BM09NES.jpg\n'
p373
aS'/raid/linjieli/faceSimilarity/attractive/ngs/males/BM26NES.jpg\n'
p374
aS'/raid/linjieli/faceSimilarity/attractive/ngs/males/AM13NES.jpg\n'
p375
aS'/raid/linjieli/faceSimilarity/attractive/ngs/males/20M_NE_C.jpg\n'
p376
aS'/raid/linjieli/faceSimilarity/attractive/ngs/males/AM14NES.jpg\n'
p377
aS'/raid/linjieli/faceSimilarity/attractive/ngs/males/AM11NES.jpg\n'
p378
aS'/raid/linjieli/faceSimilarity/attractive/ngs/males/image_0204.jpg\n'
p379
aS'/raid/linjieli/faceSimilarity/attractive/ngs/males/30M_NE_C.jpg\n'
p380
aS'/raid/linjieli/faceSimilarity/attractive/ngs/males/BM24NES.jpg\n'
p381
aS'/raid/linjieli/faceSimilarity/attractive/ngs/males/AM35NES.jpg\n'
p382
aS'/raid/linjieli/faceSimilarity/attractive/ngs/males/BM34NES.jpg\n'
p383
aS'/raid/linjieli/faceSimilarity/attractive/ngs/males/BM04NES.jpg\n'
p384
aS'/raid/linjieli/faceSimilarity/attractive/ngs/males/image_0148.jpg\n'
p385
aS'/raid/linjieli/faceSimilarity/attractive/ngs/males/BM08NES.jpg\n'
p386
aS'/raid/linjieli/faceSimilarity/attractive/ngs/males/image_0046.jpg\n'
p387
aS'/raid/linjieli/faceSimilarity/attractive/ngs/males/00362_940422_fa_ppm.jpg\n'
p388
aS'/raid/linjieli/faceSimilarity/attractive/ngs/males/00322_940422_fa_ppm.jpg\n'
p389
aS'/raid/linjieli/faceSimilarity/attractive/ngs/males/AM23NES.jpg\n'
p390
aS'/raid/linjieli/faceSimilarity/attractive/ngs/males/00341_940422_fa_ppm.jpg\n'
p391
aS'/raid/linjieli/faceSimilarity/attractive/ngs/males/00002_940928_fa.jpg\n'
p392
aS'/raid/linjieli/faceSimilarity/attractive/ngs/males/22M_NE_C.jpg\n'
p393
aS'/raid/linjieli/faceSimilarity/attractive/ngs/males/00050_931230_fa_ppm.jpg\n'
p394
aS'/raid/linjieli/faceSimilarity/attractive/ngs/males/BM07NES.jpg\n'
p395
aS'/raid/linjieli/faceSimilarity/attractive/ngs/males/BM12NES.jpg\n'
p396
aS'/raid/linjieli/faceSimilarity/attractive/ngs/males/image_0408.jpg\n'
p397
aS'/raid/linjieli/faceSimilarity/attractive/ngs/males/21M_NE_C.jpg\n'
p398
aS'/raid/linjieli/faceSimilarity/attractive/ngs/males/33M_NE_C.jpg\n'
p399
aS'/raid/linjieli/faceSimilarity/attractive/ngs/males/00081_940928_fa_ppm.jpg\n'
p400
asS'/raid/linjieli/faceSimilarity/attractive/mit/females'
p401
(lp402
S'/raid/linjieli/faceSimilarity/attractive/mit/females/i35.jpg\n'
p403
aS'/raid/linjieli/faceSimilarity/attractive/mit/females/i50.jpg\n'
p404
aS'/raid/linjieli/faceSimilarity/attractive/mit/females/i40.jpg\n'
p405
aS'/raid/linjieli/faceSimilarity/attractive/mit/females/i21.jpg\n'
p406
aS'/raid/linjieli/faceSimilarity/attractive/mit/females/i63.jpg\n'
p407
aS'/raid/linjieli/faceSimilarity/attractive/mit/females/i6.jpg\n'
p408
aS'/raid/linjieli/faceSimilarity/attractive/mit/females/i58.jpg\n'
p409
aS'/raid/linjieli/faceSimilarity/attractive/mit/females/i38.jpg\n'
p410
aS'/raid/linjieli/faceSimilarity/attractive/mit/females/i55.jpg\n'
p411
aS'/raid/linjieli/faceSimilarity/attractive/mit/females/i11.jpg\n'
p412
aS'/raid/linjieli/faceSimilarity/attractive/mit/females/i48.jpg\n'
p413
aS'/raid/linjieli/faceSimilarity/attractive/mit/females/i65.jpg\n'
p414
aS'/raid/linjieli/faceSimilarity/attractive/mit/females/i8.jpg\n'
p415
aS'/raid/linjieli/faceSimilarity/attractive/mit/females/i42.jpg\n'
p416
aS'/raid/linjieli/faceSimilarity/attractive/mit/females/i27.jpg\n'
p417
aS'/raid/linjieli/faceSimilarity/attractive/mit/females/i51.jpg\n'
p418
aS'/raid/linjieli/faceSimilarity/attractive/mit/females/i3.jpg\n'
p419
aS'/raid/linjieli/faceSimilarity/attractive/mit/females/i5.jpg\n'
p420
aS'/raid/linjieli/faceSimilarity/attractive/mit/females/i24.jpg\n'
p421
aS'/raid/linjieli/faceSimilarity/attractive/mit/females/i71.jpg\n'
p422
aS'/raid/linjieli/faceSimilarity/attractive/mit/females/i52.jpg\n'
p423
aS'/raid/linjieli/faceSimilarity/attractive/mit/females/i54.jpg\n'
p424
aS'/raid/linjieli/faceSimilarity/attractive/mit/females/i46.jpg\n'
p425
aS'/raid/linjieli/faceSimilarity/attractive/mit/females/i16.jpg\n'
p426
aS'/raid/linjieli/faceSimilarity/attractive/mit/females/i26.jpg\n'
p427
aS'/raid/linjieli/faceSimilarity/attractive/mit/females/i45.jpg\n'
p428
aS'/raid/linjieli/faceSimilarity/attractive/mit/females/i57.jpg\n'
p429
aS'/raid/linjieli/faceSimilarity/attractive/mit/females/i33.jpg\n'
p430
aS'/raid/linjieli/faceSimilarity/attractive/mit/females/i25.jpg\n'
p431
aS'/raid/linjieli/faceSimilarity/attractive/mit/females/i14.jpg\n'
p432
aS'/raid/linjieli/faceSimilarity/attractive/mit/females/i31.jpg\n'
p433
aS'/raid/linjieli/faceSimilarity/attractive/mit/females/i30.jpg\n'
p434
aS'/raid/linjieli/faceSimilarity/attractive/mit/females/i20.jpg\n'
p435
aS'/raid/linjieli/faceSimilarity/attractive/mit/females/i47.jpg\n'
p436
aS'/raid/linjieli/faceSimilarity/attractive/mit/females/i36.jpg\n'
p437
aS'/raid/linjieli/faceSimilarity/attractive/mit/females/i2.jpg\n'
p438
asS'/raid/linjieli/faceSimilarity/attractive/gh/males'
p439
(lp440
S'/raid/linjieli/faceSimilarity/attractive/gh/males/m57.jpg\n'
p441
aS'/raid/linjieli/faceSimilarity/attractive/gh/males/m8.jpg\n'
p442
aS'/raid/linjieli/faceSimilarity/attractive/gh/males/m66.jpg\n'
p443
aS'/raid/linjieli/faceSimilarity/attractive/gh/males/m51.jpg\n'
p444
aS'/raid/linjieli/faceSimilarity/attractive/gh/males/m37.jpg\n'
p445
aS'/raid/linjieli/faceSimilarity/attractive/gh/males/m49.jpg\n'
p446
aS'/raid/linjieli/faceSimilarity/attractive/gh/males/m63.jpg\n'
p447
aS'/raid/linjieli/faceSimilarity/attractive/gh/males/m48.jpg\n'
p448
aS'/raid/linjieli/faceSimilarity/attractive/gh/males/m59.jpg\n'
p449
aS'/raid/linjieli/faceSimilarity/attractive/gh/males/m9.jpg\n'
p450
aS'/raid/linjieli/faceSimilarity/attractive/gh/males/m5.jpg\n'
p451
aS'/raid/linjieli/faceSimilarity/attractive/gh/males/m14.jpg\n'
p452
aS'/raid/linjieli/faceSimilarity/attractive/gh/males/m47.jpg\n'
p453
aS'/raid/linjieli/faceSimilarity/attractive/gh/males/m53.jpg\n'
p454
aS'/raid/linjieli/faceSimilarity/attractive/gh/males/m60.jpg\n'
p455
aS'/raid/linjieli/faceSimilarity/attractive/gh/males/m25.jpg\n'
p456
aS'/raid/linjieli/faceSimilarity/attractive/gh/males/m23.jpg\n'
p457
aS'/raid/linjieli/faceSimilarity/attractive/gh/males/m32.jpg\n'
p458
aS'/raid/linjieli/faceSimilarity/attractive/gh/males/m38.jpg\n'
p459
aS'/raid/linjieli/faceSimilarity/attractive/gh/males/m26.jpg\n'
p460
aS'/raid/linjieli/faceSimilarity/attractive/gh/males/m70.jpg\n'
p461
aS'/raid/linjieli/faceSimilarity/attractive/gh/males/m42.jpg\n'
p462
aS'/raid/linjieli/faceSimilarity/attractive/gh/males/m55.jpg\n'
p463
aS'/raid/linjieli/faceSimilarity/attractive/gh/males/m39.jpg\n'
p464
aS'/raid/linjieli/faceSimilarity/attractive/gh/males/m52.jpg\n'
p465
aS'/raid/linjieli/faceSimilarity/attractive/gh/males/m29.jpg\n'
p466
aS'/raid/linjieli/faceSimilarity/attractive/gh/males/m36.jpg\n'
p467
aS'/raid/linjieli/faceSimilarity/attractive/gh/males/m58.jpg\n'
p468
aS'/raid/linjieli/faceSimilarity/attractive/gh/males/m22.jpg\n'
p469
aS'/raid/linjieli/faceSimilarity/attractive/gh/males/m10.jpg\n'
p470
aS'/raid/linjieli/faceSimilarity/attractive/gh/males/m28.jpg\n'
p471
aS'/raid/linjieli/faceSimilarity/attractive/gh/males/m43.jpg\n'
p472
aS'/raid/linjieli/faceSimilarity/attractive/gh/males/m33.jpg\n'
p473
aS'/raid/linjieli/faceSimilarity/attractive/gh/males/m44.jpg\n'
p474
aS'/raid/linjieli/faceSimilarity/attractive/gh/males/m11.jpg\n'
p475
aS'/raid/linjieli/faceSimilarity/attractive/gh/males/m31.jpg\n'
p476
aS'/raid/linjieli/faceSimilarity/attractive/gh/males/m67.jpg\n'
p477
aS'/raid/linjieli/faceSimilarity/attractive/gh/males/m45.jpg\n'
p478
aS'/raid/linjieli/faceSimilarity/attractive/gh/males/m18.jpg\n'
p479
aS'/raid/linjieli/faceSimilarity/attractive/gh/males/m12.jpg\n'
p480
aS'/raid/linjieli/faceSimilarity/attractive/gh/males/m21.jpg\n'
p481
aS'/raid/linjieli/faceSimilarity/attractive/gh/males/m27.jpg\n'
p482
aS'/raid/linjieli/faceSimilarity/attractive/gh/males/m15.jpg\n'
p483
aS'/raid/linjieli/faceSimilarity/attractive/gh/males/m3.jpg\n'
p484
aS'/raid/linjieli/faceSimilarity/attractive/gh/males/m35.jpg\n'
p485
aS'/raid/linjieli/faceSimilarity/attractive/gh/males/m34.jpg\n'
p486
aS'/raid/linjieli/faceSimilarity/attractive/gh/males/m30.jpg\n'
p487
aS'/raid/linjieli/faceSimilarity/attractive/gh/males/m56.jpg\n'
p488
aS'/raid/linjieli/faceSimilarity/attractive/gh/males/m68.jpg\n'
p489
aS'/raid/linjieli/faceSimilarity/attractive/gh/males/m54.jpg\n'
p490
aS'/raid/linjieli/faceSimilarity/attractive/gh/males/m50.jpg\n'
p491
aS'/raid/linjieli/faceSimilarity/attractive/gh/males/m4.jpg\n'
p492
aS'/raid/linjieli/faceSimilarity/attractive/gh/males/m62.jpg\n'
p493
aS'/raid/linjieli/faceSimilarity/attractive/gh/males/m69.jpg\n'
p494
aS'/raid/linjieli/faceSimilarity/attractive/gh/males/m1.jpg\n'
p495
aS'/raid/linjieli/faceSimilarity/attractive/gh/males/m2.jpg\n'
p496
aS'/raid/linjieli/faceSimilarity/attractive/gh/males/m24.jpg\n'
p497
aS'/raid/linjieli/faceSimilarity/attractive/gh/males/m13.jpg\n'
p498
aS'/raid/linjieli/faceSimilarity/attractive/gh/males/m46.jpg\n'
p499
aS'/raid/linjieli/faceSimilarity/attractive/gh/males/m7.jpg\n'
p500
aS'/raid/linjieli/faceSimilarity/attractive/gh/males/m65.jpg\n'
p501
aS'/raid/linjieli/faceSimilarity/attractive/gh/males/m40.jpg\n'
p502
aS'/raid/linjieli/faceSimilarity/attractive/gh/males/m41.jpg\n'
p503
aS'/raid/linjieli/faceSimilarity/attractive/gh/males/m16.jpg\n'
p504
aS'/raid/linjieli/faceSimilarity/attractive/gh/males/m19.jpg\n'
p505
aS'/raid/linjieli/faceSimilarity/attractive/gh/males/m20.jpg\n'
p506
aS'/raid/linjieli/faceSimilarity/attractive/gh/males/m17.jpg\n'
p507
aS'/raid/linjieli/faceSimilarity/attractive/gh/males/m61.jpg\n'
p508
aS'/raid/linjieli/faceSimilarity/attractive/gh/males/m64.jpg\n'
p509
aS'/raid/linjieli/faceSimilarity/attractive/gh/males/m6.jpg\n'
p510
as.